

Microchip Technology PIC LITE Macro Assembler V1.34 build -361300703 
                                                                                               Fri Jul 01 22:57:41 2016

Microchip Technology Omniscient Code Generator (Lite mode) build 201502162209
     1                           	processor	16F1615
     2                           	opt	pw 120
     3                           	opt	lm
     4                           	psect	idataBANK0,global,class=CODE,delta=2
     5                           	psect	cinit,global,class=CODE,merge=1,delta=2
     6                           	psect	dataBANK0,global,class=BANK0,space=1,delta=1
     7                           	psect	inittext,global,class=CODE,delta=2
     8                           	psect	cstackCOMMON,global,class=COMMON,space=1,delta=1
     9                           	psect	cstackBANK0,global,class=BANK0,space=1,delta=1
    10                           	psect	maintext,global,class=CODE,merge=1,split=1,delta=2
    11                           	psect	text1,local,class=CODE,merge=1,delta=2
    12                           	psect	text2,local,class=CODE,merge=1,delta=2
    13                           	psect	text3,local,class=CODE,merge=1,delta=2
    14                           	psect	text4,local,class=CODE,merge=1,delta=2
    15                           	psect	text5,local,class=CODE,merge=1,inline,delta=2
    16                           	psect	text6,local,class=CODE,merge=1,inline,delta=2
    17                           	psect	text7,local,class=CODE,merge=1,delta=2
    18                           	psect	text8,local,class=CODE,merge=1,delta=2
    19                           	psect	text9,local,class=CODE,merge=1,delta=2
    20                           	psect	text10,local,class=CODE,merge=1,delta=2
    21                           	psect	text11,local,class=CODE,merge=1,delta=2
    22                           	psect	swtext1,local,class=CONST,delta=2
    23                           	psect	text12,local,class=CODE,merge=1,delta=2
    24                           	psect	text13,local,class=CODE,merge=1,delta=2
    25                           	psect	intentry,global,class=CODE,delta=2
    26                           	psect	text15,local,class=CODE,merge=1,inline,delta=2
    27                           	psect	text16,local,class=CODE,merge=1,inline,delta=2
    28                           	psect	text17,local,class=CODE,merge=1,inline,delta=2
    29                           	dabs	1,0x7E,2
    30  0000                     	;# 
    31  0001                     	;# 
    32  0002                     	;# 
    33  0003                     	;# 
    34  0004                     	;# 
    35  0005                     	;# 
    36  0006                     	;# 
    37  0007                     	;# 
    38  0008                     	;# 
    39  0009                     	;# 
    40  000A                     	;# 
    41  000B                     	;# 
    42  000C                     	;# 
    43  000E                     	;# 
    44  0010                     	;# 
    45  0011                     	;# 
    46  0012                     	;# 
    47  0013                     	;# 
    48  0014                     	;# 
    49  0015                     	;# 
    50  0016                     	;# 
    51  0016                     	;# 
    52  0017                     	;# 
    53  0018                     	;# 
    54  0019                     	;# 
    55  001A                     	;# 
    56  001A                     	;# 
    57  001B                     	;# 
    58  001B                     	;# 
    59  001C                     	;# 
    60  001D                     	;# 
    61  001E                     	;# 
    62  001F                     	;# 
    63  008C                     	;# 
    64  008E                     	;# 
    65  0090                     	;# 
    66  0091                     	;# 
    67  0092                     	;# 
    68  0093                     	;# 
    69  0094                     	;# 
    70  0095                     	;# 
    71  0096                     	;# 
    72  0098                     	;# 
    73  0099                     	;# 
    74  009A                     	;# 
    75  009B                     	;# 
    76  009B                     	;# 
    77  009C                     	;# 
    78  009D                     	;# 
    79  009E                     	;# 
    80  009F                     	;# 
    81  010C                     	;# 
    82  010E                     	;# 
    83  0111                     	;# 
    84  0112                     	;# 
    85  0113                     	;# 
    86  0114                     	;# 
    87  0115                     	;# 
    88  0116                     	;# 
    89  0117                     	;# 
    90  0118                     	;# 
    91  0119                     	;# 
    92  011C                     	;# 
    93  018C                     	;# 
    94  018E                     	;# 
    95  0191                     	;# 
    96  0191                     	;# 
    97  0192                     	;# 
    98  0193                     	;# 
    99  0193                     	;# 
   100  0194                     	;# 
   101  0195                     	;# 
   102  0196                     	;# 
   103  0197                     	;# 
   104  0199                     	;# 
   105  0199                     	;# 
   106  0199                     	;# 
   107  019A                     	;# 
   108  019A                     	;# 
   109  019A                     	;# 
   110  019B                     	;# 
   111  019B                     	;# 
   112  019B                     	;# 
   113  019B                     	;# 
   114  019B                     	;# 
   115  019C                     	;# 
   116  019C                     	;# 
   117  019C                     	;# 
   118  019D                     	;# 
   119  019D                     	;# 
   120  019D                     	;# 
   121  019E                     	;# 
   122  019E                     	;# 
   123  019E                     	;# 
   124  019F                     	;# 
   125  019F                     	;# 
   126  019F                     	;# 
   127  019F                     	;# 
   128  019F                     	;# 
   129  020C                     	;# 
   130  020E                     	;# 
   131  0211                     	;# 
   132  0211                     	;# 
   133  0212                     	;# 
   134  0212                     	;# 
   135  0213                     	;# 
   136  0213                     	;# 
   137  0214                     	;# 
   138  0214                     	;# 
   139  0215                     	;# 
   140  0215                     	;# 
   141  0215                     	;# 
   142  0215                     	;# 
   143  0216                     	;# 
   144  0216                     	;# 
   145  0217                     	;# 
   146  0217                     	;# 
   147  028C                     	;# 
   148  028E                     	;# 
   149  0291                     	;# 
   150  0291                     	;# 
   151  0292                     	;# 
   152  0293                     	;# 
   153  0294                     	;# 
   154  0298                     	;# 
   155  0298                     	;# 
   156  0299                     	;# 
   157  029A                     	;# 
   158  029B                     	;# 
   159  029E                     	;# 
   160  030C                     	;# 
   161  030E                     	;# 
   162  038C                     	;# 
   163  038E                     	;# 
   164  0391                     	;# 
   165  0392                     	;# 
   166  0393                     	;# 
   167  0397                     	;# 
   168  0398                     	;# 
   169  0399                     	;# 
   170  040E                     	;# 
   171  0413                     	;# 
   172  0413                     	;# 
   173  0414                     	;# 
   174  0414                     	;# 
   175  0415                     	;# 
   176  0416                     	;# 
   177  0417                     	;# 
   178  0418                     	;# 
   179  041A                     	;# 
   180  041A                     	;# 
   181  041B                     	;# 
   182  041B                     	;# 
   183  041C                     	;# 
   184  041D                     	;# 
   185  041E                     	;# 
   186  041F                     	;# 
   187  0493                     	;# 
   188  0494                     	;# 
   189  0495                     	;# 
   190  0496                     	;# 
   191  049A                     	;# 
   192  049B                     	;# 
   193  049C                     	;# 
   194  049D                     	;# 
   195  058C                     	;# 
   196  058C                     	;# 
   197  058D                     	;# 
   198  058E                     	;# 
   199  058E                     	;# 
   200  058F                     	;# 
   201  0590                     	;# 
   202  0590                     	;# 
   203  0591                     	;# 
   204  0592                     	;# 
   205  0592                     	;# 
   206  0593                     	;# 
   207  0594                     	;# 
   208  0594                     	;# 
   209  0595                     	;# 
   210  0596                     	;# 
   211  0596                     	;# 
   212  0597                     	;# 
   213  0598                     	;# 
   214  0599                     	;# 
   215  059A                     	;# 
   216  059B                     	;# 
   217  059B                     	;# 
   218  059C                     	;# 
   219  059D                     	;# 
   220  060C                     	;# 
   221  060C                     	;# 
   222  060D                     	;# 
   223  060E                     	;# 
   224  060F                     	;# 
   225  060F                     	;# 
   226  0610                     	;# 
   227  0611                     	;# 
   228  0612                     	;# 
   229  0613                     	;# 
   230  0614                     	;# 
   231  0617                     	;# 
   232  0618                     	;# 
   233  0619                     	;# 
   234  061A                     	;# 
   235  061B                     	;# 
   236  061C                     	;# 
   237  0691                     	;# 
   238  0692                     	;# 
   239  0693                     	;# 
   240  0694                     	;# 
   241  0695                     	;# 
   242  0696                     	;# 
   243  0697                     	;# 
   244  0699                     	;# 
   245  069A                     	;# 
   246  0711                     	;# 
   247  0712                     	;# 
   248  0713                     	;# 
   249  0714                     	;# 
   250  0715                     	;# 
   251  0718                     	;# 
   252  0718                     	;# 
   253  0719                     	;# 
   254  071A                     	;# 
   255  071A                     	;# 
   256  071B                     	;# 
   257  071C                     	;# 
   258  071D                     	;# 
   259  0791                     	;# 
   260  0791                     	;# 
   261  0792                     	;# 
   262  0793                     	;# 
   263  0793                     	;# 
   264  0794                     	;# 
   265  0795                     	;# 
   266  0795                     	;# 
   267  0796                     	;# 
   268  0797                     	;# 
   269  0797                     	;# 
   270  0798                     	;# 
   271  0799                     	;# 
   272  079A                     	;# 
   273  080C                     	;# 
   274  080C                     	;# 
   275  080D                     	;# 
   276  080E                     	;# 
   277  080E                     	;# 
   278  080F                     	;# 
   279  0810                     	;# 
   280  0810                     	;# 
   281  0811                     	;# 
   282  0812                     	;# 
   283  0812                     	;# 
   284  0813                     	;# 
   285  0814                     	;# 
   286  0815                     	;# 
   287  0816                     	;# 
   288  0817                     	;# 
   289  0818                     	;# 
   290  0819                     	;# 
   291  081A                     	;# 
   292  081A                     	;# 
   293  081B                     	;# 
   294  081C                     	;# 
   295  081C                     	;# 
   296  081D                     	;# 
   297  088C                     	;# 
   298  088D                     	;# 
   299  088E                     	;# 
   300  088F                     	;# 
   301  088F                     	;# 
   302  0890                     	;# 
   303  0891                     	;# 
   304  0892                     	;# 
   305  0893                     	;# 
   306  0893                     	;# 
   307  0894                     	;# 
   308  0895                     	;# 
   309  0896                     	;# 
   310  0897                     	;# 
   311  0897                     	;# 
   312  0898                     	;# 
   313  0899                     	;# 
   314  0D8C                     	;# 
   315  0D8C                     	;# 
   316  0D8D                     	;# 
   317  0D8E                     	;# 
   318  0D8F                     	;# 
   319  0D8F                     	;# 
   320  0D90                     	;# 
   321  0D91                     	;# 
   322  0D92                     	;# 
   323  0D92                     	;# 
   324  0D93                     	;# 
   325  0D94                     	;# 
   326  0D95                     	;# 
   327  0D95                     	;# 
   328  0D96                     	;# 
   329  0D97                     	;# 
   330  0D98                     	;# 
   331  0D99                     	;# 
   332  0D9A                     	;# 
   333  0D9B                     	;# 
   334  0D9C                     	;# 
   335  0D9D                     	;# 
   336  0D9E                     	;# 
   337  0D9E                     	;# 
   338  0D9F                     	;# 
   339  0DA0                     	;# 
   340  0DA1                     	;# 
   341  0DA1                     	;# 
   342  0DA2                     	;# 
   343  0DA3                     	;# 
   344  0DA4                     	;# 
   345  0DA4                     	;# 
   346  0DA5                     	;# 
   347  0DA6                     	;# 
   348  0DA7                     	;# 
   349  0DA7                     	;# 
   350  0DA8                     	;# 
   351  0DA9                     	;# 
   352  0DAA                     	;# 
   353  0DAB                     	;# 
   354  0DAC                     	;# 
   355  0DAD                     	;# 
   356  0DAE                     	;# 
   357  0DAF                     	;# 
   358  0E0F                     	;# 
   359  0E10                     	;# 
   360  0E11                     	;# 
   361  0E12                     	;# 
   362  0E13                     	;# 
   363  0E14                     	;# 
   364  0E15                     	;# 
   365  0E16                     	;# 
   366  0E17                     	;# 
   367  0E18                     	;# 
   368  0E19                     	;# 
   369  0E1A                     	;# 
   370  0E1B                     	;# 
   371  0E1C                     	;# 
   372  0E1D                     	;# 
   373  0E1E                     	;# 
   374  0E1F                     	;# 
   375  0E20                     	;# 
   376  0E21                     	;# 
   377  0E22                     	;# 
   378  0E23                     	;# 
   379  0E24                     	;# 
   380  0E25                     	;# 
   381  0E26                     	;# 
   382  0E27                     	;# 
   383  0E28                     	;# 
   384  0E29                     	;# 
   385  0E2A                     	;# 
   386  0E2B                     	;# 
   387  0E2C                     	;# 
   388  0E2D                     	;# 
   389  0E2E                     	;# 
   390  0E90                     	;# 
   391  0E91                     	;# 
   392  0E92                     	;# 
   393  0E94                     	;# 
   394  0E95                     	;# 
   395  0EA0                     	;# 
   396  0EA1                     	;# 
   397  0EA2                     	;# 
   398  0EA3                     	;# 
   399  0EA4                     	;# 
   400  0EA5                     	;# 
   401  0F0F                     	;# 
   402  0F10                     	;# 
   403  0F11                     	;# 
   404  0F12                     	;# 
   405  0F13                     	;# 
   406  0F14                     	;# 
   407  0F15                     	;# 
   408  0F16                     	;# 
   409  0F17                     	;# 
   410  0F18                     	;# 
   411  0F19                     	;# 
   412  0F1A                     	;# 
   413  0F1B                     	;# 
   414  0F1C                     	;# 
   415  0F1D                     	;# 
   416  0F1E                     	;# 
   417  0F1F                     	;# 
   418  0F20                     	;# 
   419  0F21                     	;# 
   420  0F22                     	;# 
   421  0F23                     	;# 
   422  0F24                     	;# 
   423  0F25                     	;# 
   424  0F26                     	;# 
   425  0F27                     	;# 
   426  0F28                     	;# 
   427  0F29                     	;# 
   428  0F2A                     	;# 
   429  0F2B                     	;# 
   430  0F2C                     	;# 
   431  0F2D                     	;# 
   432  0F2E                     	;# 
   433  0F2F                     	;# 
   434  0F30                     	;# 
   435  0F31                     	;# 
   436  0F32                     	;# 
   437  0F33                     	;# 
   438  0F34                     	;# 
   439  0F35                     	;# 
   440  0F36                     	;# 
   441  0F37                     	;# 
   442  0FE4                     	;# 
   443  0FE5                     	;# 
   444  0FE6                     	;# 
   445  0FE7                     	;# 
   446  0FE8                     	;# 
   447  0FE9                     	;# 
   448  0FEA                     	;# 
   449  0FEB                     	;# 
   450  0FED                     	;# 
   451  0FEE                     	;# 
   452  0FEF                     	;# 
   453  0000                     	;# 
   454  0001                     	;# 
   455  0002                     	;# 
   456  0003                     	;# 
   457  0004                     	;# 
   458  0005                     	;# 
   459  0006                     	;# 
   460  0007                     	;# 
   461  0008                     	;# 
   462  0009                     	;# 
   463  000A                     	;# 
   464  000B                     	;# 
   465  000C                     	;# 
   466  000E                     	;# 
   467  0010                     	;# 
   468  0011                     	;# 
   469  0012                     	;# 
   470  0013                     	;# 
   471  0014                     	;# 
   472  0015                     	;# 
   473  0016                     	;# 
   474  0016                     	;# 
   475  0017                     	;# 
   476  0018                     	;# 
   477  0019                     	;# 
   478  001A                     	;# 
   479  001A                     	;# 
   480  001B                     	;# 
   481  001B                     	;# 
   482  001C                     	;# 
   483  001D                     	;# 
   484  001E                     	;# 
   485  001F                     	;# 
   486  008C                     	;# 
   487  008E                     	;# 
   488  0090                     	;# 
   489  0091                     	;# 
   490  0092                     	;# 
   491  0093                     	;# 
   492  0094                     	;# 
   493  0095                     	;# 
   494  0096                     	;# 
   495  0098                     	;# 
   496  0099                     	;# 
   497  009A                     	;# 
   498  009B                     	;# 
   499  009B                     	;# 
   500  009C                     	;# 
   501  009D                     	;# 
   502  009E                     	;# 
   503  009F                     	;# 
   504  010C                     	;# 
   505  010E                     	;# 
   506  0111                     	;# 
   507  0112                     	;# 
   508  0113                     	;# 
   509  0114                     	;# 
   510  0115                     	;# 
   511  0116                     	;# 
   512  0117                     	;# 
   513  0118                     	;# 
   514  0119                     	;# 
   515  011C                     	;# 
   516  018C                     	;# 
   517  018E                     	;# 
   518  0191                     	;# 
   519  0191                     	;# 
   520  0192                     	;# 
   521  0193                     	;# 
   522  0193                     	;# 
   523  0194                     	;# 
   524  0195                     	;# 
   525  0196                     	;# 
   526  0197                     	;# 
   527  0199                     	;# 
   528  0199                     	;# 
   529  0199                     	;# 
   530  019A                     	;# 
   531  019A                     	;# 
   532  019A                     	;# 
   533  019B                     	;# 
   534  019B                     	;# 
   535  019B                     	;# 
   536  019B                     	;# 
   537  019B                     	;# 
   538  019C                     	;# 
   539  019C                     	;# 
   540  019C                     	;# 
   541  019D                     	;# 
   542  019D                     	;# 
   543  019D                     	;# 
   544  019E                     	;# 
   545  019E                     	;# 
   546  019E                     	;# 
   547  019F                     	;# 
   548  019F                     	;# 
   549  019F                     	;# 
   550  019F                     	;# 
   551  019F                     	;# 
   552  020C                     	;# 
   553  020E                     	;# 
   554  0211                     	;# 
   555  0211                     	;# 
   556  0212                     	;# 
   557  0212                     	;# 
   558  0213                     	;# 
   559  0213                     	;# 
   560  0214                     	;# 
   561  0214                     	;# 
   562  0215                     	;# 
   563  0215                     	;# 
   564  0215                     	;# 
   565  0215                     	;# 
   566  0216                     	;# 
   567  0216                     	;# 
   568  0217                     	;# 
   569  0217                     	;# 
   570  028C                     	;# 
   571  028E                     	;# 
   572  0291                     	;# 
   573  0291                     	;# 
   574  0292                     	;# 
   575  0293                     	;# 
   576  0294                     	;# 
   577  0298                     	;# 
   578  0298                     	;# 
   579  0299                     	;# 
   580  029A                     	;# 
   581  029B                     	;# 
   582  029E                     	;# 
   583  030C                     	;# 
   584  030E                     	;# 
   585  038C                     	;# 
   586  038E                     	;# 
   587  0391                     	;# 
   588  0392                     	;# 
   589  0393                     	;# 
   590  0397                     	;# 
   591  0398                     	;# 
   592  0399                     	;# 
   593  040E                     	;# 
   594  0413                     	;# 
   595  0413                     	;# 
   596  0414                     	;# 
   597  0414                     	;# 
   598  0415                     	;# 
   599  0416                     	;# 
   600  0417                     	;# 
   601  0418                     	;# 
   602  041A                     	;# 
   603  041A                     	;# 
   604  041B                     	;# 
   605  041B                     	;# 
   606  041C                     	;# 
   607  041D                     	;# 
   608  041E                     	;# 
   609  041F                     	;# 
   610  0493                     	;# 
   611  0494                     	;# 
   612  0495                     	;# 
   613  0496                     	;# 
   614  049A                     	;# 
   615  049B                     	;# 
   616  049C                     	;# 
   617  049D                     	;# 
   618  058C                     	;# 
   619  058C                     	;# 
   620  058D                     	;# 
   621  058E                     	;# 
   622  058E                     	;# 
   623  058F                     	;# 
   624  0590                     	;# 
   625  0590                     	;# 
   626  0591                     	;# 
   627  0592                     	;# 
   628  0592                     	;# 
   629  0593                     	;# 
   630  0594                     	;# 
   631  0594                     	;# 
   632  0595                     	;# 
   633  0596                     	;# 
   634  0596                     	;# 
   635  0597                     	;# 
   636  0598                     	;# 
   637  0599                     	;# 
   638  059A                     	;# 
   639  059B                     	;# 
   640  059B                     	;# 
   641  059C                     	;# 
   642  059D                     	;# 
   643  060C                     	;# 
   644  060C                     	;# 
   645  060D                     	;# 
   646  060E                     	;# 
   647  060F                     	;# 
   648  060F                     	;# 
   649  0610                     	;# 
   650  0611                     	;# 
   651  0612                     	;# 
   652  0613                     	;# 
   653  0614                     	;# 
   654  0617                     	;# 
   655  0618                     	;# 
   656  0619                     	;# 
   657  061A                     	;# 
   658  061B                     	;# 
   659  061C                     	;# 
   660  0691                     	;# 
   661  0692                     	;# 
   662  0693                     	;# 
   663  0694                     	;# 
   664  0695                     	;# 
   665  0696                     	;# 
   666  0697                     	;# 
   667  0699                     	;# 
   668  069A                     	;# 
   669  0711                     	;# 
   670  0712                     	;# 
   671  0713                     	;# 
   672  0714                     	;# 
   673  0715                     	;# 
   674  0718                     	;# 
   675  0718                     	;# 
   676  0719                     	;# 
   677  071A                     	;# 
   678  071A                     	;# 
   679  071B                     	;# 
   680  071C                     	;# 
   681  071D                     	;# 
   682  0791                     	;# 
   683  0791                     	;# 
   684  0792                     	;# 
   685  0793                     	;# 
   686  0793                     	;# 
   687  0794                     	;# 
   688  0795                     	;# 
   689  0795                     	;# 
   690  0796                     	;# 
   691  0797                     	;# 
   692  0797                     	;# 
   693  0798                     	;# 
   694  0799                     	;# 
   695  079A                     	;# 
   696  080C                     	;# 
   697  080C                     	;# 
   698  080D                     	;# 
   699  080E                     	;# 
   700  080E                     	;# 
   701  080F                     	;# 
   702  0810                     	;# 
   703  0810                     	;# 
   704  0811                     	;# 
   705  0812                     	;# 
   706  0812                     	;# 
   707  0813                     	;# 
   708  0814                     	;# 
   709  0815                     	;# 
   710  0816                     	;# 
   711  0817                     	;# 
   712  0818                     	;# 
   713  0819                     	;# 
   714  081A                     	;# 
   715  081A                     	;# 
   716  081B                     	;# 
   717  081C                     	;# 
   718  081C                     	;# 
   719  081D                     	;# 
   720  088C                     	;# 
   721  088D                     	;# 
   722  088E                     	;# 
   723  088F                     	;# 
   724  088F                     	;# 
   725  0890                     	;# 
   726  0891                     	;# 
   727  0892                     	;# 
   728  0893                     	;# 
   729  0893                     	;# 
   730  0894                     	;# 
   731  0895                     	;# 
   732  0896                     	;# 
   733  0897                     	;# 
   734  0897                     	;# 
   735  0898                     	;# 
   736  0899                     	;# 
   737  0D8C                     	;# 
   738  0D8C                     	;# 
   739  0D8D                     	;# 
   740  0D8E                     	;# 
   741  0D8F                     	;# 
   742  0D8F                     	;# 
   743  0D90                     	;# 
   744  0D91                     	;# 
   745  0D92                     	;# 
   746  0D92                     	;# 
   747  0D93                     	;# 
   748  0D94                     	;# 
   749  0D95                     	;# 
   750  0D95                     	;# 
   751  0D96                     	;# 
   752  0D97                     	;# 
   753  0D98                     	;# 
   754  0D99                     	;# 
   755  0D9A                     	;# 
   756  0D9B                     	;# 
   757  0D9C                     	;# 
   758  0D9D                     	;# 
   759  0D9E                     	;# 
   760  0D9E                     	;# 
   761  0D9F                     	;# 
   762  0DA0                     	;# 
   763  0DA1                     	;# 
   764  0DA1                     	;# 
   765  0DA2                     	;# 
   766  0DA3                     	;# 
   767  0DA4                     	;# 
   768  0DA4                     	;# 
   769  0DA5                     	;# 
   770  0DA6                     	;# 
   771  0DA7                     	;# 
   772  0DA7                     	;# 
   773  0DA8                     	;# 
   774  0DA9                     	;# 
   775  0DAA                     	;# 
   776  0DAB                     	;# 
   777  0DAC                     	;# 
   778  0DAD                     	;# 
   779  0DAE                     	;# 
   780  0DAF                     	;# 
   781  0E0F                     	;# 
   782  0E10                     	;# 
   783  0E11                     	;# 
   784  0E12                     	;# 
   785  0E13                     	;# 
   786  0E14                     	;# 
   787  0E15                     	;# 
   788  0E16                     	;# 
   789  0E17                     	;# 
   790  0E18                     	;# 
   791  0E19                     	;# 
   792  0E1A                     	;# 
   793  0E1B                     	;# 
   794  0E1C                     	;# 
   795  0E1D                     	;# 
   796  0E1E                     	;# 
   797  0E1F                     	;# 
   798  0E20                     	;# 
   799  0E21                     	;# 
   800  0E22                     	;# 
   801  0E23                     	;# 
   802  0E24                     	;# 
   803  0E25                     	;# 
   804  0E26                     	;# 
   805  0E27                     	;# 
   806  0E28                     	;# 
   807  0E29                     	;# 
   808  0E2A                     	;# 
   809  0E2B                     	;# 
   810  0E2C                     	;# 
   811  0E2D                     	;# 
   812  0E2E                     	;# 
   813  0E90                     	;# 
   814  0E91                     	;# 
   815  0E92                     	;# 
   816  0E94                     	;# 
   817  0E95                     	;# 
   818  0EA0                     	;# 
   819  0EA1                     	;# 
   820  0EA2                     	;# 
   821  0EA3                     	;# 
   822  0EA4                     	;# 
   823  0EA5                     	;# 
   824  0F0F                     	;# 
   825  0F10                     	;# 
   826  0F11                     	;# 
   827  0F12                     	;# 
   828  0F13                     	;# 
   829  0F14                     	;# 
   830  0F15                     	;# 
   831  0F16                     	;# 
   832  0F17                     	;# 
   833  0F18                     	;# 
   834  0F19                     	;# 
   835  0F1A                     	;# 
   836  0F1B                     	;# 
   837  0F1C                     	;# 
   838  0F1D                     	;# 
   839  0F1E                     	;# 
   840  0F1F                     	;# 
   841  0F20                     	;# 
   842  0F21                     	;# 
   843  0F22                     	;# 
   844  0F23                     	;# 
   845  0F24                     	;# 
   846  0F25                     	;# 
   847  0F26                     	;# 
   848  0F27                     	;# 
   849  0F28                     	;# 
   850  0F29                     	;# 
   851  0F2A                     	;# 
   852  0F2B                     	;# 
   853  0F2C                     	;# 
   854  0F2D                     	;# 
   855  0F2E                     	;# 
   856  0F2F                     	;# 
   857  0F30                     	;# 
   858  0F31                     	;# 
   859  0F32                     	;# 
   860  0F33                     	;# 
   861  0F34                     	;# 
   862  0F35                     	;# 
   863  0F36                     	;# 
   864  0F37                     	;# 
   865  0FE4                     	;# 
   866  0FE5                     	;# 
   867  0FE6                     	;# 
   868  0FE7                     	;# 
   869  0FE8                     	;# 
   870  0FE9                     	;# 
   871  0FEA                     	;# 
   872  0FEB                     	;# 
   873  0FED                     	;# 
   874  0FEE                     	;# 
   875  0FEF                     	;# 
   876  0000                     	;# 
   877  0001                     	;# 
   878  0002                     	;# 
   879  0003                     	;# 
   880  0004                     	;# 
   881  0005                     	;# 
   882  0006                     	;# 
   883  0007                     	;# 
   884  0008                     	;# 
   885  0009                     	;# 
   886  000A                     	;# 
   887  000B                     	;# 
   888  000C                     	;# 
   889  000E                     	;# 
   890  0010                     	;# 
   891  0011                     	;# 
   892  0012                     	;# 
   893  0013                     	;# 
   894  0014                     	;# 
   895  0015                     	;# 
   896  0016                     	;# 
   897  0016                     	;# 
   898  0017                     	;# 
   899  0018                     	;# 
   900  0019                     	;# 
   901  001A                     	;# 
   902  001A                     	;# 
   903  001B                     	;# 
   904  001B                     	;# 
   905  001C                     	;# 
   906  001D                     	;# 
   907  001E                     	;# 
   908  001F                     	;# 
   909  008C                     	;# 
   910  008E                     	;# 
   911  0090                     	;# 
   912  0091                     	;# 
   913  0092                     	;# 
   914  0093                     	;# 
   915  0094                     	;# 
   916  0095                     	;# 
   917  0096                     	;# 
   918  0098                     	;# 
   919  0099                     	;# 
   920  009A                     	;# 
   921  009B                     	;# 
   922  009B                     	;# 
   923  009C                     	;# 
   924  009D                     	;# 
   925  009E                     	;# 
   926  009F                     	;# 
   927  010C                     	;# 
   928  010E                     	;# 
   929  0111                     	;# 
   930  0112                     	;# 
   931  0113                     	;# 
   932  0114                     	;# 
   933  0115                     	;# 
   934  0116                     	;# 
   935  0117                     	;# 
   936  0118                     	;# 
   937  0119                     	;# 
   938  011C                     	;# 
   939  018C                     	;# 
   940  018E                     	;# 
   941  0191                     	;# 
   942  0191                     	;# 
   943  0192                     	;# 
   944  0193                     	;# 
   945  0193                     	;# 
   946  0194                     	;# 
   947  0195                     	;# 
   948  0196                     	;# 
   949  0197                     	;# 
   950  0199                     	;# 
   951  0199                     	;# 
   952  0199                     	;# 
   953  019A                     	;# 
   954  019A                     	;# 
   955  019A                     	;# 
   956  019B                     	;# 
   957  019B                     	;# 
   958  019B                     	;# 
   959  019B                     	;# 
   960  019B                     	;# 
   961  019C                     	;# 
   962  019C                     	;# 
   963  019C                     	;# 
   964  019D                     	;# 
   965  019D                     	;# 
   966  019D                     	;# 
   967  019E                     	;# 
   968  019E                     	;# 
   969  019E                     	;# 
   970  019F                     	;# 
   971  019F                     	;# 
   972  019F                     	;# 
   973  019F                     	;# 
   974  019F                     	;# 
   975  020C                     	;# 
   976  020E                     	;# 
   977  0211                     	;# 
   978  0211                     	;# 
   979  0212                     	;# 
   980  0212                     	;# 
   981  0213                     	;# 
   982  0213                     	;# 
   983  0214                     	;# 
   984  0214                     	;# 
   985  0215                     	;# 
   986  0215                     	;# 
   987  0215                     	;# 
   988  0215                     	;# 
   989  0216                     	;# 
   990  0216                     	;# 
   991  0217                     	;# 
   992  0217                     	;# 
   993  028C                     	;# 
   994  028E                     	;# 
   995  0291                     	;# 
   996  0291                     	;# 
   997  0292                     	;# 
   998  0293                     	;# 
   999  0294                     	;# 
  1000  0298                     	;# 
  1001  0298                     	;# 
  1002  0299                     	;# 
  1003  029A                     	;# 
  1004  029B                     	;# 
  1005  029E                     	;# 
  1006  030C                     	;# 
  1007  030E                     	;# 
  1008  038C                     	;# 
  1009  038E                     	;# 
  1010  0391                     	;# 
  1011  0392                     	;# 
  1012  0393                     	;# 
  1013  0397                     	;# 
  1014  0398                     	;# 
  1015  0399                     	;# 
  1016  040E                     	;# 
  1017  0413                     	;# 
  1018  0413                     	;# 
  1019  0414                     	;# 
  1020  0414                     	;# 
  1021  0415                     	;# 
  1022  0416                     	;# 
  1023  0417                     	;# 
  1024  0418                     	;# 
  1025  041A                     	;# 
  1026  041A                     	;# 
  1027  041B                     	;# 
  1028  041B                     	;# 
  1029  041C                     	;# 
  1030  041D                     	;# 
  1031  041E                     	;# 
  1032  041F                     	;# 
  1033  0493                     	;# 
  1034  0494                     	;# 
  1035  0495                     	;# 
  1036  0496                     	;# 
  1037  049A                     	;# 
  1038  049B                     	;# 
  1039  049C                     	;# 
  1040  049D                     	;# 
  1041  058C                     	;# 
  1042  058C                     	;# 
  1043  058D                     	;# 
  1044  058E                     	;# 
  1045  058E                     	;# 
  1046  058F                     	;# 
  1047  0590                     	;# 
  1048  0590                     	;# 
  1049  0591                     	;# 
  1050  0592                     	;# 
  1051  0592                     	;# 
  1052  0593                     	;# 
  1053  0594                     	;# 
  1054  0594                     	;# 
  1055  0595                     	;# 
  1056  0596                     	;# 
  1057  0596                     	;# 
  1058  0597                     	;# 
  1059  0598                     	;# 
  1060  0599                     	;# 
  1061  059A                     	;# 
  1062  059B                     	;# 
  1063  059B                     	;# 
  1064  059C                     	;# 
  1065  059D                     	;# 
  1066  060C                     	;# 
  1067  060C                     	;# 
  1068  060D                     	;# 
  1069  060E                     	;# 
  1070  060F                     	;# 
  1071  060F                     	;# 
  1072  0610                     	;# 
  1073  0611                     	;# 
  1074  0612                     	;# 
  1075  0613                     	;# 
  1076  0614                     	;# 
  1077  0617                     	;# 
  1078  0618                     	;# 
  1079  0619                     	;# 
  1080  061A                     	;# 
  1081  061B                     	;# 
  1082  061C                     	;# 
  1083  0691                     	;# 
  1084  0692                     	;# 
  1085  0693                     	;# 
  1086  0694                     	;# 
  1087  0695                     	;# 
  1088  0696                     	;# 
  1089  0697                     	;# 
  1090  0699                     	;# 
  1091  069A                     	;# 
  1092  0711                     	;# 
  1093  0712                     	;# 
  1094  0713                     	;# 
  1095  0714                     	;# 
  1096  0715                     	;# 
  1097  0718                     	;# 
  1098  0718                     	;# 
  1099  0719                     	;# 
  1100  071A                     	;# 
  1101  071A                     	;# 
  1102  071B                     	;# 
  1103  071C                     	;# 
  1104  071D                     	;# 
  1105  0791                     	;# 
  1106  0791                     	;# 
  1107  0792                     	;# 
  1108  0793                     	;# 
  1109  0793                     	;# 
  1110  0794                     	;# 
  1111  0795                     	;# 
  1112  0795                     	;# 
  1113  0796                     	;# 
  1114  0797                     	;# 
  1115  0797                     	;# 
  1116  0798                     	;# 
  1117  0799                     	;# 
  1118  079A                     	;# 
  1119  080C                     	;# 
  1120  080C                     	;# 
  1121  080D                     	;# 
  1122  080E                     	;# 
  1123  080E                     	;# 
  1124  080F                     	;# 
  1125  0810                     	;# 
  1126  0810                     	;# 
  1127  0811                     	;# 
  1128  0812                     	;# 
  1129  0812                     	;# 
  1130  0813                     	;# 
  1131  0814                     	;# 
  1132  0815                     	;# 
  1133  0816                     	;# 
  1134  0817                     	;# 
  1135  0818                     	;# 
  1136  0819                     	;# 
  1137  081A                     	;# 
  1138  081A                     	;# 
  1139  081B                     	;# 
  1140  081C                     	;# 
  1141  081C                     	;# 
  1142  081D                     	;# 
  1143  088C                     	;# 
  1144  088D                     	;# 
  1145  088E                     	;# 
  1146  088F                     	;# 
  1147  088F                     	;# 
  1148  0890                     	;# 
  1149  0891                     	;# 
  1150  0892                     	;# 
  1151  0893                     	;# 
  1152  0893                     	;# 
  1153  0894                     	;# 
  1154  0895                     	;# 
  1155  0896                     	;# 
  1156  0897                     	;# 
  1157  0897                     	;# 
  1158  0898                     	;# 
  1159  0899                     	;# 
  1160  0D8C                     	;# 
  1161  0D8C                     	;# 
  1162  0D8D                     	;# 
  1163  0D8E                     	;# 
  1164  0D8F                     	;# 
  1165  0D8F                     	;# 
  1166  0D90                     	;# 
  1167  0D91                     	;# 
  1168  0D92                     	;# 
  1169  0D92                     	;# 
  1170  0D93                     	;# 
  1171  0D94                     	;# 
  1172  0D95                     	;# 
  1173  0D95                     	;# 
  1174  0D96                     	;# 
  1175  0D97                     	;# 
  1176  0D98                     	;# 
  1177  0D99                     	;# 
  1178  0D9A                     	;# 
  1179  0D9B                     	;# 
  1180  0D9C                     	;# 
  1181  0D9D                     	;# 
  1182  0D9E                     	;# 
  1183  0D9E                     	;# 
  1184  0D9F                     	;# 
  1185  0DA0                     	;# 
  1186  0DA1                     	;# 
  1187  0DA1                     	;# 
  1188  0DA2                     	;# 
  1189  0DA3                     	;# 
  1190  0DA4                     	;# 
  1191  0DA4                     	;# 
  1192  0DA5                     	;# 
  1193  0DA6                     	;# 
  1194  0DA7                     	;# 
  1195  0DA7                     	;# 
  1196  0DA8                     	;# 
  1197  0DA9                     	;# 
  1198  0DAA                     	;# 
  1199  0DAB                     	;# 
  1200  0DAC                     	;# 
  1201  0DAD                     	;# 
  1202  0DAE                     	;# 
  1203  0DAF                     	;# 
  1204  0E0F                     	;# 
  1205  0E10                     	;# 
  1206  0E11                     	;# 
  1207  0E12                     	;# 
  1208  0E13                     	;# 
  1209  0E14                     	;# 
  1210  0E15                     	;# 
  1211  0E16                     	;# 
  1212  0E17                     	;# 
  1213  0E18                     	;# 
  1214  0E19                     	;# 
  1215  0E1A                     	;# 
  1216  0E1B                     	;# 
  1217  0E1C                     	;# 
  1218  0E1D                     	;# 
  1219  0E1E                     	;# 
  1220  0E1F                     	;# 
  1221  0E20                     	;# 
  1222  0E21                     	;# 
  1223  0E22                     	;# 
  1224  0E23                     	;# 
  1225  0E24                     	;# 
  1226  0E25                     	;# 
  1227  0E26                     	;# 
  1228  0E27                     	;# 
  1229  0E28                     	;# 
  1230  0E29                     	;# 
  1231  0E2A                     	;# 
  1232  0E2B                     	;# 
  1233  0E2C                     	;# 
  1234  0E2D                     	;# 
  1235  0E2E                     	;# 
  1236  0E90                     	;# 
  1237  0E91                     	;# 
  1238  0E92                     	;# 
  1239  0E94                     	;# 
  1240  0E95                     	;# 
  1241  0EA0                     	;# 
  1242  0EA1                     	;# 
  1243  0EA2                     	;# 
  1244  0EA3                     	;# 
  1245  0EA4                     	;# 
  1246  0EA5                     	;# 
  1247  0F0F                     	;# 
  1248  0F10                     	;# 
  1249  0F11                     	;# 
  1250  0F12                     	;# 
  1251  0F13                     	;# 
  1252  0F14                     	;# 
  1253  0F15                     	;# 
  1254  0F16                     	;# 
  1255  0F17                     	;# 
  1256  0F18                     	;# 
  1257  0F19                     	;# 
  1258  0F1A                     	;# 
  1259  0F1B                     	;# 
  1260  0F1C                     	;# 
  1261  0F1D                     	;# 
  1262  0F1E                     	;# 
  1263  0F1F                     	;# 
  1264  0F20                     	;# 
  1265  0F21                     	;# 
  1266  0F22                     	;# 
  1267  0F23                     	;# 
  1268  0F24                     	;# 
  1269  0F25                     	;# 
  1270  0F26                     	;# 
  1271  0F27                     	;# 
  1272  0F28                     	;# 
  1273  0F29                     	;# 
  1274  0F2A                     	;# 
  1275  0F2B                     	;# 
  1276  0F2C                     	;# 
  1277  0F2D                     	;# 
  1278  0F2E                     	;# 
  1279  0F2F                     	;# 
  1280  0F30                     	;# 
  1281  0F31                     	;# 
  1282  0F32                     	;# 
  1283  0F33                     	;# 
  1284  0F34                     	;# 
  1285  0F35                     	;# 
  1286  0F36                     	;# 
  1287  0F37                     	;# 
  1288  0FE4                     	;# 
  1289  0FE5                     	;# 
  1290  0FE6                     	;# 
  1291  0FE7                     	;# 
  1292  0FE8                     	;# 
  1293  0FE9                     	;# 
  1294  0FEA                     	;# 
  1295  0FEB                     	;# 
  1296  0FED                     	;# 
  1297  0FEE                     	;# 
  1298  0FEF                     	;# 
  1299  0000                     	;# 
  1300  0001                     	;# 
  1301  0002                     	;# 
  1302  0003                     	;# 
  1303  0004                     	;# 
  1304  0005                     	;# 
  1305  0006                     	;# 
  1306  0007                     	;# 
  1307  0008                     	;# 
  1308  0009                     	;# 
  1309  000A                     	;# 
  1310  000B                     	;# 
  1311  000C                     	;# 
  1312  000E                     	;# 
  1313  0010                     	;# 
  1314  0011                     	;# 
  1315  0012                     	;# 
  1316  0013                     	;# 
  1317  0014                     	;# 
  1318  0015                     	;# 
  1319  0016                     	;# 
  1320  0016                     	;# 
  1321  0017                     	;# 
  1322  0018                     	;# 
  1323  0019                     	;# 
  1324  001A                     	;# 
  1325  001A                     	;# 
  1326  001B                     	;# 
  1327  001B                     	;# 
  1328  001C                     	;# 
  1329  001D                     	;# 
  1330  001E                     	;# 
  1331  001F                     	;# 
  1332  008C                     	;# 
  1333  008E                     	;# 
  1334  0090                     	;# 
  1335  0091                     	;# 
  1336  0092                     	;# 
  1337  0093                     	;# 
  1338  0094                     	;# 
  1339  0095                     	;# 
  1340  0096                     	;# 
  1341  0098                     	;# 
  1342  0099                     	;# 
  1343  009A                     	;# 
  1344  009B                     	;# 
  1345  009B                     	;# 
  1346  009C                     	;# 
  1347  009D                     	;# 
  1348  009E                     	;# 
  1349  009F                     	;# 
  1350  010C                     	;# 
  1351  010E                     	;# 
  1352  0111                     	;# 
  1353  0112                     	;# 
  1354  0113                     	;# 
  1355  0114                     	;# 
  1356  0115                     	;# 
  1357  0116                     	;# 
  1358  0117                     	;# 
  1359  0118                     	;# 
  1360  0119                     	;# 
  1361  011C                     	;# 
  1362  018C                     	;# 
  1363  018E                     	;# 
  1364  0191                     	;# 
  1365  0191                     	;# 
  1366  0192                     	;# 
  1367  0193                     	;# 
  1368  0193                     	;# 
  1369  0194                     	;# 
  1370  0195                     	;# 
  1371  0196                     	;# 
  1372  0197                     	;# 
  1373  0199                     	;# 
  1374  0199                     	;# 
  1375  0199                     	;# 
  1376  019A                     	;# 
  1377  019A                     	;# 
  1378  019A                     	;# 
  1379  019B                     	;# 
  1380  019B                     	;# 
  1381  019B                     	;# 
  1382  019B                     	;# 
  1383  019B                     	;# 
  1384  019C                     	;# 
  1385  019C                     	;# 
  1386  019C                     	;# 
  1387  019D                     	;# 
  1388  019D                     	;# 
  1389  019D                     	;# 
  1390  019E                     	;# 
  1391  019E                     	;# 
  1392  019E                     	;# 
  1393  019F                     	;# 
  1394  019F                     	;# 
  1395  019F                     	;# 
  1396  019F                     	;# 
  1397  019F                     	;# 
  1398  020C                     	;# 
  1399  020E                     	;# 
  1400  0211                     	;# 
  1401  0211                     	;# 
  1402  0212                     	;# 
  1403  0212                     	;# 
  1404  0213                     	;# 
  1405  0213                     	;# 
  1406  0214                     	;# 
  1407  0214                     	;# 
  1408  0215                     	;# 
  1409  0215                     	;# 
  1410  0215                     	;# 
  1411  0215                     	;# 
  1412  0216                     	;# 
  1413  0216                     	;# 
  1414  0217                     	;# 
  1415  0217                     	;# 
  1416  028C                     	;# 
  1417  028E                     	;# 
  1418  0291                     	;# 
  1419  0291                     	;# 
  1420  0292                     	;# 
  1421  0293                     	;# 
  1422  0294                     	;# 
  1423  0298                     	;# 
  1424  0298                     	;# 
  1425  0299                     	;# 
  1426  029A                     	;# 
  1427  029B                     	;# 
  1428  029E                     	;# 
  1429  030C                     	;# 
  1430  030E                     	;# 
  1431  038C                     	;# 
  1432  038E                     	;# 
  1433  0391                     	;# 
  1434  0392                     	;# 
  1435  0393                     	;# 
  1436  0397                     	;# 
  1437  0398                     	;# 
  1438  0399                     	;# 
  1439  040E                     	;# 
  1440  0413                     	;# 
  1441  0413                     	;# 
  1442  0414                     	;# 
  1443  0414                     	;# 
  1444  0415                     	;# 
  1445  0416                     	;# 
  1446  0417                     	;# 
  1447  0418                     	;# 
  1448  041A                     	;# 
  1449  041A                     	;# 
  1450  041B                     	;# 
  1451  041B                     	;# 
  1452  041C                     	;# 
  1453  041D                     	;# 
  1454  041E                     	;# 
  1455  041F                     	;# 
  1456  0493                     	;# 
  1457  0494                     	;# 
  1458  0495                     	;# 
  1459  0496                     	;# 
  1460  049A                     	;# 
  1461  049B                     	;# 
  1462  049C                     	;# 
  1463  049D                     	;# 
  1464  058C                     	;# 
  1465  058C                     	;# 
  1466  058D                     	;# 
  1467  058E                     	;# 
  1468  058E                     	;# 
  1469  058F                     	;# 
  1470  0590                     	;# 
  1471  0590                     	;# 
  1472  0591                     	;# 
  1473  0592                     	;# 
  1474  0592                     	;# 
  1475  0593                     	;# 
  1476  0594                     	;# 
  1477  0594                     	;# 
  1478  0595                     	;# 
  1479  0596                     	;# 
  1480  0596                     	;# 
  1481  0597                     	;# 
  1482  0598                     	;# 
  1483  0599                     	;# 
  1484  059A                     	;# 
  1485  059B                     	;# 
  1486  059B                     	;# 
  1487  059C                     	;# 
  1488  059D                     	;# 
  1489  060C                     	;# 
  1490  060C                     	;# 
  1491  060D                     	;# 
  1492  060E                     	;# 
  1493  060F                     	;# 
  1494  060F                     	;# 
  1495  0610                     	;# 
  1496  0611                     	;# 
  1497  0612                     	;# 
  1498  0613                     	;# 
  1499  0614                     	;# 
  1500  0617                     	;# 
  1501  0618                     	;# 
  1502  0619                     	;# 
  1503  061A                     	;# 
  1504  061B                     	;# 
  1505  061C                     	;# 
  1506  0691                     	;# 
  1507  0692                     	;# 
  1508  0693                     	;# 
  1509  0694                     	;# 
  1510  0695                     	;# 
  1511  0696                     	;# 
  1512  0697                     	;# 
  1513  0699                     	;# 
  1514  069A                     	;# 
  1515  0711                     	;# 
  1516  0712                     	;# 
  1517  0713                     	;# 
  1518  0714                     	;# 
  1519  0715                     	;# 
  1520  0718                     	;# 
  1521  0718                     	;# 
  1522  0719                     	;# 
  1523  071A                     	;# 
  1524  071A                     	;# 
  1525  071B                     	;# 
  1526  071C                     	;# 
  1527  071D                     	;# 
  1528  0791                     	;# 
  1529  0791                     	;# 
  1530  0792                     	;# 
  1531  0793                     	;# 
  1532  0793                     	;# 
  1533  0794                     	;# 
  1534  0795                     	;# 
  1535  0795                     	;# 
  1536  0796                     	;# 
  1537  0797                     	;# 
  1538  0797                     	;# 
  1539  0798                     	;# 
  1540  0799                     	;# 
  1541  079A                     	;# 
  1542  080C                     	;# 
  1543  080C                     	;# 
  1544  080D                     	;# 
  1545  080E                     	;# 
  1546  080E                     	;# 
  1547  080F                     	;# 
  1548  0810                     	;# 
  1549  0810                     	;# 
  1550  0811                     	;# 
  1551  0812                     	;# 
  1552  0812                     	;# 
  1553  0813                     	;# 
  1554  0814                     	;# 
  1555  0815                     	;# 
  1556  0816                     	;# 
  1557  0817                     	;# 
  1558  0818                     	;# 
  1559  0819                     	;# 
  1560  081A                     	;# 
  1561  081A                     	;# 
  1562  081B                     	;# 
  1563  081C                     	;# 
  1564  081C                     	;# 
  1565  081D                     	;# 
  1566  088C                     	;# 
  1567  088D                     	;# 
  1568  088E                     	;# 
  1569  088F                     	;# 
  1570  088F                     	;# 
  1571  0890                     	;# 
  1572  0891                     	;# 
  1573  0892                     	;# 
  1574  0893                     	;# 
  1575  0893                     	;# 
  1576  0894                     	;# 
  1577  0895                     	;# 
  1578  0896                     	;# 
  1579  0897                     	;# 
  1580  0897                     	;# 
  1581  0898                     	;# 
  1582  0899                     	;# 
  1583  0D8C                     	;# 
  1584  0D8C                     	;# 
  1585  0D8D                     	;# 
  1586  0D8E                     	;# 
  1587  0D8F                     	;# 
  1588  0D8F                     	;# 
  1589  0D90                     	;# 
  1590  0D91                     	;# 
  1591  0D92                     	;# 
  1592  0D92                     	;# 
  1593  0D93                     	;# 
  1594  0D94                     	;# 
  1595  0D95                     	;# 
  1596  0D95                     	;# 
  1597  0D96                     	;# 
  1598  0D97                     	;# 
  1599  0D98                     	;# 
  1600  0D99                     	;# 
  1601  0D9A                     	;# 
  1602  0D9B                     	;# 
  1603  0D9C                     	;# 
  1604  0D9D                     	;# 
  1605  0D9E                     	;# 
  1606  0D9E                     	;# 
  1607  0D9F                     	;# 
  1608  0DA0                     	;# 
  1609  0DA1                     	;# 
  1610  0DA1                     	;# 
  1611  0DA2                     	;# 
  1612  0DA3                     	;# 
  1613  0DA4                     	;# 
  1614  0DA4                     	;# 
  1615  0DA5                     	;# 
  1616  0DA6                     	;# 
  1617  0DA7                     	;# 
  1618  0DA7                     	;# 
  1619  0DA8                     	;# 
  1620  0DA9                     	;# 
  1621  0DAA                     	;# 
  1622  0DAB                     	;# 
  1623  0DAC                     	;# 
  1624  0DAD                     	;# 
  1625  0DAE                     	;# 
  1626  0DAF                     	;# 
  1627  0E0F                     	;# 
  1628  0E10                     	;# 
  1629  0E11                     	;# 
  1630  0E12                     	;# 
  1631  0E13                     	;# 
  1632  0E14                     	;# 
  1633  0E15                     	;# 
  1634  0E16                     	;# 
  1635  0E17                     	;# 
  1636  0E18                     	;# 
  1637  0E19                     	;# 
  1638  0E1A                     	;# 
  1639  0E1B                     	;# 
  1640  0E1C                     	;# 
  1641  0E1D                     	;# 
  1642  0E1E                     	;# 
  1643  0E1F                     	;# 
  1644  0E20                     	;# 
  1645  0E21                     	;# 
  1646  0E22                     	;# 
  1647  0E23                     	;# 
  1648  0E24                     	;# 
  1649  0E25                     	;# 
  1650  0E26                     	;# 
  1651  0E27                     	;# 
  1652  0E28                     	;# 
  1653  0E29                     	;# 
  1654  0E2A                     	;# 
  1655  0E2B                     	;# 
  1656  0E2C                     	;# 
  1657  0E2D                     	;# 
  1658  0E2E                     	;# 
  1659  0E90                     	;# 
  1660  0E91                     	;# 
  1661  0E92                     	;# 
  1662  0E94                     	;# 
  1663  0E95                     	;# 
  1664  0EA0                     	;# 
  1665  0EA1                     	;# 
  1666  0EA2                     	;# 
  1667  0EA3                     	;# 
  1668  0EA4                     	;# 
  1669  0EA5                     	;# 
  1670  0F0F                     	;# 
  1671  0F10                     	;# 
  1672  0F11                     	;# 
  1673  0F12                     	;# 
  1674  0F13                     	;# 
  1675  0F14                     	;# 
  1676  0F15                     	;# 
  1677  0F16                     	;# 
  1678  0F17                     	;# 
  1679  0F18                     	;# 
  1680  0F19                     	;# 
  1681  0F1A                     	;# 
  1682  0F1B                     	;# 
  1683  0F1C                     	;# 
  1684  0F1D                     	;# 
  1685  0F1E                     	;# 
  1686  0F1F                     	;# 
  1687  0F20                     	;# 
  1688  0F21                     	;# 
  1689  0F22                     	;# 
  1690  0F23                     	;# 
  1691  0F24                     	;# 
  1692  0F25                     	;# 
  1693  0F26                     	;# 
  1694  0F27                     	;# 
  1695  0F28                     	;# 
  1696  0F29                     	;# 
  1697  0F2A                     	;# 
  1698  0F2B                     	;# 
  1699  0F2C                     	;# 
  1700  0F2D                     	;# 
  1701  0F2E                     	;# 
  1702  0F2F                     	;# 
  1703  0F30                     	;# 
  1704  0F31                     	;# 
  1705  0F32                     	;# 
  1706  0F33                     	;# 
  1707  0F34                     	;# 
  1708  0F35                     	;# 
  1709  0F36                     	;# 
  1710  0F37                     	;# 
  1711  0FE4                     	;# 
  1712  0FE5                     	;# 
  1713  0FE6                     	;# 
  1714  0FE7                     	;# 
  1715  0FE8                     	;# 
  1716  0FE9                     	;# 
  1717  0FEA                     	;# 
  1718  0FEB                     	;# 
  1719  0FED                     	;# 
  1720  0FEE                     	;# 
  1721  0FEF                     	;# 
  1722  0000                     	;# 
  1723  0001                     	;# 
  1724  0002                     	;# 
  1725  0003                     	;# 
  1726  0004                     	;# 
  1727  0005                     	;# 
  1728  0006                     	;# 
  1729  0007                     	;# 
  1730  0008                     	;# 
  1731  0009                     	;# 
  1732  000A                     	;# 
  1733  000B                     	;# 
  1734  000C                     	;# 
  1735  000E                     	;# 
  1736  0010                     	;# 
  1737  0011                     	;# 
  1738  0012                     	;# 
  1739  0013                     	;# 
  1740  0014                     	;# 
  1741  0015                     	;# 
  1742  0016                     	;# 
  1743  0016                     	;# 
  1744  0017                     	;# 
  1745  0018                     	;# 
  1746  0019                     	;# 
  1747  001A                     	;# 
  1748  001A                     	;# 
  1749  001B                     	;# 
  1750  001B                     	;# 
  1751  001C                     	;# 
  1752  001D                     	;# 
  1753  001E                     	;# 
  1754  001F                     	;# 
  1755  008C                     	;# 
  1756  008E                     	;# 
  1757  0090                     	;# 
  1758  0091                     	;# 
  1759  0092                     	;# 
  1760  0093                     	;# 
  1761  0094                     	;# 
  1762  0095                     	;# 
  1763  0096                     	;# 
  1764  0098                     	;# 
  1765  0099                     	;# 
  1766  009A                     	;# 
  1767  009B                     	;# 
  1768  009B                     	;# 
  1769  009C                     	;# 
  1770  009D                     	;# 
  1771  009E                     	;# 
  1772  009F                     	;# 
  1773  010C                     	;# 
  1774  010E                     	;# 
  1775  0111                     	;# 
  1776  0112                     	;# 
  1777  0113                     	;# 
  1778  0114                     	;# 
  1779  0115                     	;# 
  1780  0116                     	;# 
  1781  0117                     	;# 
  1782  0118                     	;# 
  1783  0119                     	;# 
  1784  011C                     	;# 
  1785  018C                     	;# 
  1786  018E                     	;# 
  1787  0191                     	;# 
  1788  0191                     	;# 
  1789  0192                     	;# 
  1790  0193                     	;# 
  1791  0193                     	;# 
  1792  0194                     	;# 
  1793  0195                     	;# 
  1794  0196                     	;# 
  1795  0197                     	;# 
  1796  0199                     	;# 
  1797  0199                     	;# 
  1798  0199                     	;# 
  1799  019A                     	;# 
  1800  019A                     	;# 
  1801  019A                     	;# 
  1802  019B                     	;# 
  1803  019B                     	;# 
  1804  019B                     	;# 
  1805  019B                     	;# 
  1806  019B                     	;# 
  1807  019C                     	;# 
  1808  019C                     	;# 
  1809  019C                     	;# 
  1810  019D                     	;# 
  1811  019D                     	;# 
  1812  019D                     	;# 
  1813  019E                     	;# 
  1814  019E                     	;# 
  1815  019E                     	;# 
  1816  019F                     	;# 
  1817  019F                     	;# 
  1818  019F                     	;# 
  1819  019F                     	;# 
  1820  019F                     	;# 
  1821  020C                     	;# 
  1822  020E                     	;# 
  1823  0211                     	;# 
  1824  0211                     	;# 
  1825  0212                     	;# 
  1826  0212                     	;# 
  1827  0213                     	;# 
  1828  0213                     	;# 
  1829  0214                     	;# 
  1830  0214                     	;# 
  1831  0215                     	;# 
  1832  0215                     	;# 
  1833  0215                     	;# 
  1834  0215                     	;# 
  1835  0216                     	;# 
  1836  0216                     	;# 
  1837  0217                     	;# 
  1838  0217                     	;# 
  1839  028C                     	;# 
  1840  028E                     	;# 
  1841  0291                     	;# 
  1842  0291                     	;# 
  1843  0292                     	;# 
  1844  0293                     	;# 
  1845  0294                     	;# 
  1846  0298                     	;# 
  1847  0298                     	;# 
  1848  0299                     	;# 
  1849  029A                     	;# 
  1850  029B                     	;# 
  1851  029E                     	;# 
  1852  030C                     	;# 
  1853  030E                     	;# 
  1854  038C                     	;# 
  1855  038E                     	;# 
  1856  0391                     	;# 
  1857  0392                     	;# 
  1858  0393                     	;# 
  1859  0397                     	;# 
  1860  0398                     	;# 
  1861  0399                     	;# 
  1862  040E                     	;# 
  1863  0413                     	;# 
  1864  0413                     	;# 
  1865  0414                     	;# 
  1866  0414                     	;# 
  1867  0415                     	;# 
  1868  0416                     	;# 
  1869  0417                     	;# 
  1870  0418                     	;# 
  1871  041A                     	;# 
  1872  041A                     	;# 
  1873  041B                     	;# 
  1874  041B                     	;# 
  1875  041C                     	;# 
  1876  041D                     	;# 
  1877  041E                     	;# 
  1878  041F                     	;# 
  1879  0493                     	;# 
  1880  0494                     	;# 
  1881  0495                     	;# 
  1882  0496                     	;# 
  1883  049A                     	;# 
  1884  049B                     	;# 
  1885  049C                     	;# 
  1886  049D                     	;# 
  1887  058C                     	;# 
  1888  058C                     	;# 
  1889  058D                     	;# 
  1890  058E                     	;# 
  1891  058E                     	;# 
  1892  058F                     	;# 
  1893  0590                     	;# 
  1894  0590                     	;# 
  1895  0591                     	;# 
  1896  0592                     	;# 
  1897  0592                     	;# 
  1898  0593                     	;# 
  1899  0594                     	;# 
  1900  0594                     	;# 
  1901  0595                     	;# 
  1902  0596                     	;# 
  1903  0596                     	;# 
  1904  0597                     	;# 
  1905  0598                     	;# 
  1906  0599                     	;# 
  1907  059A                     	;# 
  1908  059B                     	;# 
  1909  059B                     	;# 
  1910  059C                     	;# 
  1911  059D                     	;# 
  1912  060C                     	;# 
  1913  060C                     	;# 
  1914  060D                     	;# 
  1915  060E                     	;# 
  1916  060F                     	;# 
  1917  060F                     	;# 
  1918  0610                     	;# 
  1919  0611                     	;# 
  1920  0612                     	;# 
  1921  0613                     	;# 
  1922  0614                     	;# 
  1923  0617                     	;# 
  1924  0618                     	;# 
  1925  0619                     	;# 
  1926  061A                     	;# 
  1927  061B                     	;# 
  1928  061C                     	;# 
  1929  0691                     	;# 
  1930  0692                     	;# 
  1931  0693                     	;# 
  1932  0694                     	;# 
  1933  0695                     	;# 
  1934  0696                     	;# 
  1935  0697                     	;# 
  1936  0699                     	;# 
  1937  069A                     	;# 
  1938  0711                     	;# 
  1939  0712                     	;# 
  1940  0713                     	;# 
  1941  0714                     	;# 
  1942  0715                     	;# 
  1943  0718                     	;# 
  1944  0718                     	;# 
  1945  0719                     	;# 
  1946  071A                     	;# 
  1947  071A                     	;# 
  1948  071B                     	;# 
  1949  071C                     	;# 
  1950  071D                     	;# 
  1951  0791                     	;# 
  1952  0791                     	;# 
  1953  0792                     	;# 
  1954  0793                     	;# 
  1955  0793                     	;# 
  1956  0794                     	;# 
  1957  0795                     	;# 
  1958  0795                     	;# 
  1959  0796                     	;# 
  1960  0797                     	;# 
  1961  0797                     	;# 
  1962  0798                     	;# 
  1963  0799                     	;# 
  1964  079A                     	;# 
  1965  080C                     	;# 
  1966  080C                     	;# 
  1967  080D                     	;# 
  1968  080E                     	;# 
  1969  080E                     	;# 
  1970  080F                     	;# 
  1971  0810                     	;# 
  1972  0810                     	;# 
  1973  0811                     	;# 
  1974  0812                     	;# 
  1975  0812                     	;# 
  1976  0813                     	;# 
  1977  0814                     	;# 
  1978  0815                     	;# 
  1979  0816                     	;# 
  1980  0817                     	;# 
  1981  0818                     	;# 
  1982  0819                     	;# 
  1983  081A                     	;# 
  1984  081A                     	;# 
  1985  081B                     	;# 
  1986  081C                     	;# 
  1987  081C                     	;# 
  1988  081D                     	;# 
  1989  088C                     	;# 
  1990  088D                     	;# 
  1991  088E                     	;# 
  1992  088F                     	;# 
  1993  088F                     	;# 
  1994  0890                     	;# 
  1995  0891                     	;# 
  1996  0892                     	;# 
  1997  0893                     	;# 
  1998  0893                     	;# 
  1999  0894                     	;# 
  2000  0895                     	;# 
  2001  0896                     	;# 
  2002  0897                     	;# 
  2003  0897                     	;# 
  2004  0898                     	;# 
  2005  0899                     	;# 
  2006  0D8C                     	;# 
  2007  0D8C                     	;# 
  2008  0D8D                     	;# 
  2009  0D8E                     	;# 
  2010  0D8F                     	;# 
  2011  0D8F                     	;# 
  2012  0D90                     	;# 
  2013  0D91                     	;# 
  2014  0D92                     	;# 
  2015  0D92                     	;# 
  2016  0D93                     	;# 
  2017  0D94                     	;# 
  2018  0D95                     	;# 
  2019  0D95                     	;# 
  2020  0D96                     	;# 
  2021  0D97                     	;# 
  2022  0D98                     	;# 
  2023  0D99                     	;# 
  2024  0D9A                     	;# 
  2025  0D9B                     	;# 
  2026  0D9C                     	;# 
  2027  0D9D                     	;# 
  2028  0D9E                     	;# 
  2029  0D9E                     	;# 
  2030  0D9F                     	;# 
  2031  0DA0                     	;# 
  2032  0DA1                     	;# 
  2033  0DA1                     	;# 
  2034  0DA2                     	;# 
  2035  0DA3                     	;# 
  2036  0DA4                     	;# 
  2037  0DA4                     	;# 
  2038  0DA5                     	;# 
  2039  0DA6                     	;# 
  2040  0DA7                     	;# 
  2041  0DA7                     	;# 
  2042  0DA8                     	;# 
  2043  0DA9                     	;# 
  2044  0DAA                     	;# 
  2045  0DAB                     	;# 
  2046  0DAC                     	;# 
  2047  0DAD                     	;# 
  2048  0DAE                     	;# 
  2049  0DAF                     	;# 
  2050  0E0F                     	;# 
  2051  0E10                     	;# 
  2052  0E11                     	;# 
  2053  0E12                     	;# 
  2054  0E13                     	;# 
  2055  0E14                     	;# 
  2056  0E15                     	;# 
  2057  0E16                     	;# 
  2058  0E17                     	;# 
  2059  0E18                     	;# 
  2060  0E19                     	;# 
  2061  0E1A                     	;# 
  2062  0E1B                     	;# 
  2063  0E1C                     	;# 
  2064  0E1D                     	;# 
  2065  0E1E                     	;# 
  2066  0E1F                     	;# 
  2067  0E20                     	;# 
  2068  0E21                     	;# 
  2069  0E22                     	;# 
  2070  0E23                     	;# 
  2071  0E24                     	;# 
  2072  0E25                     	;# 
  2073  0E26                     	;# 
  2074  0E27                     	;# 
  2075  0E28                     	;# 
  2076  0E29                     	;# 
  2077  0E2A                     	;# 
  2078  0E2B                     	;# 
  2079  0E2C                     	;# 
  2080  0E2D                     	;# 
  2081  0E2E                     	;# 
  2082  0E90                     	;# 
  2083  0E91                     	;# 
  2084  0E92                     	;# 
  2085  0E94                     	;# 
  2086  0E95                     	;# 
  2087  0EA0                     	;# 
  2088  0EA1                     	;# 
  2089  0EA2                     	;# 
  2090  0EA3                     	;# 
  2091  0EA4                     	;# 
  2092  0EA5                     	;# 
  2093  0F0F                     	;# 
  2094  0F10                     	;# 
  2095  0F11                     	;# 
  2096  0F12                     	;# 
  2097  0F13                     	;# 
  2098  0F14                     	;# 
  2099  0F15                     	;# 
  2100  0F16                     	;# 
  2101  0F17                     	;# 
  2102  0F18                     	;# 
  2103  0F19                     	;# 
  2104  0F1A                     	;# 
  2105  0F1B                     	;# 
  2106  0F1C                     	;# 
  2107  0F1D                     	;# 
  2108  0F1E                     	;# 
  2109  0F1F                     	;# 
  2110  0F20                     	;# 
  2111  0F21                     	;# 
  2112  0F22                     	;# 
  2113  0F23                     	;# 
  2114  0F24                     	;# 
  2115  0F25                     	;# 
  2116  0F26                     	;# 
  2117  0F27                     	;# 
  2118  0F28                     	;# 
  2119  0F29                     	;# 
  2120  0F2A                     	;# 
  2121  0F2B                     	;# 
  2122  0F2C                     	;# 
  2123  0F2D                     	;# 
  2124  0F2E                     	;# 
  2125  0F2F                     	;# 
  2126  0F30                     	;# 
  2127  0F31                     	;# 
  2128  0F32                     	;# 
  2129  0F33                     	;# 
  2130  0F34                     	;# 
  2131  0F35                     	;# 
  2132  0F36                     	;# 
  2133  0F37                     	;# 
  2134  0FE4                     	;# 
  2135  0FE5                     	;# 
  2136  0FE6                     	;# 
  2137  0FE7                     	;# 
  2138  0FE8                     	;# 
  2139  0FE9                     	;# 
  2140  0FEA                     	;# 
  2141  0FEB                     	;# 
  2142  0FED                     	;# 
  2143  0FEE                     	;# 
  2144  0FEF                     	;# 
  2145                           
  2146                           	psect	idataBANK0
  2147  0186                     __pidataBANK0:	
  2148                           
  2149                           ;initializer for _video_buffer
  2150  0186  34FF               	retlw	255
  2151  0187  34FF               	retlw	255
  2152  0188  34FF               	retlw	255
  2153  0189  34FF               	retlw	255
  2154  018A  34FF               	retlw	255
  2155  018B  34FF               	retlw	255
  2156  018C  34FF               	retlw	255
  2157  018D  34FF               	retlw	255
  2158  018E  3401               	retlw	1
  2159  000B                     _INTCONbits	set	11
  2160  0014                     _PIR5bits	set	20
  2161  0099                     _OSCCONbits	set	153
  2162  009A                     _OSCSTATbits	set	154
  2163  0094                     _PIE5bits	set	148
  2164  008E                     _TRISCbits	set	142
  2165  010E                     _LATCbits	set	270
  2166  0212                     _SSP1ADD	set	530
  2167  0215                     _SSP1CON1	set	533
  2168  0215                     _SSP1CON1bits	set	533
  2169  0214                     _SSP1STAT	set	532
  2170  0214                     _SSP1STATbits	set	532
  2171  0211                     _SSPBUF	set	529
  2172  049C                     _T5CON	set	1180
  2173  049B                     _TMR5H	set	1179
  2174  049A                     _TMR5L	set	1178
  2175  0E0F                     _PPSLOCK	set	3599
  2176  0E0F                     _PPSLOCKbits	set	3599
  2177  0EA0                     _RC0PPS	set	3744
  2178  0EA2                     _RC2PPS	set	3746
  2179                           
  2180                           ; #config settings
  2181  0000                     
  2182                           	psect	cinit
  2183  0016                     start_initialization:	
  2184  0016                     __initialization:	
  2185                           
  2186                           ; Initialize objects allocated to BANK0
  2187  0016  3086               	movlw	low __pidataBANK0
  2188  0017  0084               	movwf	4
  2189  0018  3081               	movlw	(high __pidataBANK0)| (0+128)
  2190  0019  0085               	movwf	5
  2191  001A  3020               	movlw	low __pdataBANK0
  2192  001B  0086               	movwf	6
  2193  001C  3000               	movlw	high __pdataBANK0
  2194  001D  0087               	movwf	7
  2195  001E  3009               	movlw	9
  2196  001F  3181  21BB         	fcall	init_ram
  2197  0021                     end_of_initialization:	
  2198                           ;End of C runtime variable initialization code
  2199                           
  2200  0021                     __end_of__initialization:	
  2201  0021  0020               	movlb	0
  2202  0022  3181  2923         	ljmp	_main	;jump to C main() function
  2203                           
  2204                           	psect	dataBANK0
  2205  0020                     __pdataBANK0:	
  2206  0020                     _video_buffer:	
  2207  0020                     	ds	9
  2208                           
  2209                           	psect	inittext
  2210  01BB                     init_ram:	
  2211  01BB  00FE               	movwf	126
  2212  01BC                     initloop:	
  2213  01BC  0012               	moviw fsr0++
  2214  01BD  001E               	movwi fsr1++
  2215  01BE  0BFE               	decfsz	126,f
  2216  01BF  29BC               	goto	initloop
  2217  01C0  3400               	retlw	0
  2218                           
  2219                           	psect	cstackCOMMON
  2220  0070                     __pcstackCOMMON:	
  2221  0070                     ?___Timer5_isr:	
  2222  0070                     ?___unhandled_isr:	
  2223                           ; 0 bytes @ 0x0
  2224                           
  2225  0070                     ??___unhandled_isr:	
  2226                           ; 0 bytes @ 0x0
  2227                           
  2228  0070                     ?_SPI_SendByte:	
  2229                           ; 0 bytes @ 0x0
  2230                           
  2231  0070                     ??_SPI_SendByte:	
  2232                           ; 0 bytes @ 0x0
  2233                           
  2234  0070                     ?_ConfigureOscillator:	
  2235                           ; 0 bytes @ 0x0
  2236                           
  2237  0070                     ?_InitApp:	
  2238                           ; 0 bytes @ 0x0
  2239                           
  2240  0070                     ?___GPIO_Init:	
  2241                           ; 0 bytes @ 0x0
  2242                           
  2243  0070                     ?___PPS_Init:	
  2244                           ; 0 bytes @ 0x0
  2245                           
  2246  0070                     ?___SPI_Init:	
  2247                           ; 0 bytes @ 0x0
  2248                           
  2249  0070                     ?___Timer5_Init:	
  2250                           ; 0 bytes @ 0x0
  2251                           
  2252  0070                     ?_isr:	
  2253                           ; 0 bytes @ 0x0
  2254                           
  2255  0070                     ?_main:	
  2256                           ; 0 bytes @ 0x0
  2257                           
  2258  0070                     ?___PPS_Unlock:	
  2259                           ; 0 bytes @ 0x0
  2260                           
  2261  0070                     ?___PPS_Lock:	
  2262                           ; 0 bytes @ 0x0
  2263                           
  2264  0070                     ?_Display_Clear:	
  2265                           ; 0 bytes @ 0x0
  2266                           
  2267  0070                     ?___Display_digit_to_mem:	
  2268                           ; 0 bytes @ 0x0
  2269                           
  2270  0070                     SPI_SendByte@byte:	
  2271                           ; 1 bytes @ 0x0
  2272                           
  2273                           
  2274                           ; 1 bytes @ 0x0
  2275  0070                     	ds	1
  2276  0071                     ??___Timer5_isr:	
  2277                           
  2278                           ; 0 bytes @ 0x1
  2279  0071                     	ds	1
  2280  0072                     ??_isr:	
  2281                           
  2282                           ; 0 bytes @ 0x2
  2283  0072                     	ds	1
  2284  0073                     ??_ConfigureOscillator:	
  2285  0073                     ??_InitApp:	
  2286                           ; 0 bytes @ 0x3
  2287                           
  2288  0073                     ??___GPIO_Init:	
  2289                           ; 0 bytes @ 0x3
  2290                           
  2291  0073                     ??___PPS_Init:	
  2292                           ; 0 bytes @ 0x3
  2293                           
  2294  0073                     ??___SPI_Init:	
  2295                           ; 0 bytes @ 0x3
  2296                           
  2297  0073                     ??___Timer5_Init:	
  2298                           ; 0 bytes @ 0x3
  2299                           
  2300  0073                     ??___PPS_Unlock:	
  2301                           ; 0 bytes @ 0x3
  2302                           
  2303  0073                     ??___PPS_Lock:	
  2304                           ; 0 bytes @ 0x3
  2305                           
  2306  0073                     ??___Display_digit_to_mem:	
  2307                           ; 0 bytes @ 0x3
  2308                           
  2309  0073                     ??_Display_Clear:	
  2310                           ; 0 bytes @ 0x3
  2311                           
  2312  0073                     ?___lwdiv:	
  2313                           ; 0 bytes @ 0x3
  2314                           
  2315  0073                     ?___lwmod:	
  2316                           ; 2 bytes @ 0x3
  2317                           
  2318  0073                     ___Display_digit_to_mem@digit:	
  2319                           ; 2 bytes @ 0x3
  2320                           
  2321  0073                     ___lwdiv@divisor:	
  2322                           ; 1 bytes @ 0x3
  2323                           
  2324  0073                     ___lwmod@divisor:	
  2325                           ; 2 bytes @ 0x3
  2326                           
  2327                           
  2328                           ; 2 bytes @ 0x3
  2329  0073                     	ds	2
  2330  0075                     ___lwdiv@dividend:	
  2331  0075                     ___lwmod@dividend:	
  2332                           ; 2 bytes @ 0x5
  2333                           
  2334                           
  2335                           ; 2 bytes @ 0x5
  2336  0075                     	ds	2
  2337  0077                     ??___lwdiv:	
  2338  0077                     ??___lwmod:	
  2339                           ; 0 bytes @ 0x7
  2340                           
  2341                           
  2342                           ; 0 bytes @ 0x7
  2343  0077                     	ds	1
  2344  0078                     ___lwmod@counter:	
  2345  0078                     ___lwdiv@quotient:	
  2346                           ; 1 bytes @ 0x8
  2347                           
  2348                           
  2349                           ; 2 bytes @ 0x8
  2350  0078                     	ds	2
  2351  007A                     ___lwdiv@counter:	
  2352                           
  2353                           ; 1 bytes @ 0xA
  2354  007A                     	ds	1
  2355                           
  2356                           	psect	cstackBANK0
  2357  0029                     __pcstackBANK0:	
  2358  0029                     ?_Display_PrintInteger:	
  2359  0029                     Display_PrintInteger@num:	
  2360                           ; 0 bytes @ 0x0
  2361                           
  2362                           
  2363                           ; 2 bytes @ 0x0
  2364  0029                     	ds	2
  2365  002B                     ??_Display_PrintInteger:	
  2366                           
  2367                           ; 0 bytes @ 0x2
  2368  002B                     	ds	1
  2369  002C                     Display_PrintInteger@p:	
  2370                           
  2371                           ; 1 bytes @ 0x3
  2372  002C                     	ds	1
  2373  002D                     ??_main:	
  2374                           
  2375                           ; 0 bytes @ 0x4
  2376  002D                     	ds	2
  2377  002F                     main@i:	
  2378                           
  2379                           ; 2 bytes @ 0x6
  2380  002F                     	ds	2
  2381                           
  2382                           	psect	maintext
  2383  0123                     __pmaintext:	
  2384 ;;
  2385 ;;Main: autosize = 0, tempsize = 2, incstack = 0, save=0
  2386 ;;
  2387 ;; *************** function _main *****************
  2388 ;; Defined at:
  2389 ;;		line 30 in file "main.c"
  2390 ;; Parameters:    Size  Location     Type
  2391 ;;		None
  2392 ;; Auto vars:     Size  Location     Type
  2393 ;;  i               2    6[BANK0 ] unsigned int 
  2394 ;; Return value:  Size  Location     Type
  2395 ;;		None               void
  2396 ;; Registers used:
  2397 ;;		wreg, fsr0l, fsr0h, fsr1l, fsr1h, status,2, status,0, pclath, cstack
  2398 ;; Tracked objects:
  2399 ;;		On entry : B1F/0
  2400 ;;		On exit  : 0/0
  2401 ;;		Unchanged: 0/0
  2402 ;; Data sizes:     COMMON   BANK0   BANK1   BANK2   BANK3   BANK4   BANK5   BANK6   BANK7   BANK8   BANK9  BANK10  BANK1
      +1  BANK12
  2403 ;;      Params:         0       0       0       0       0       0       0       0       0       0       0       0       
      +0       0
  2404 ;;      Locals:         0       2       0       0       0       0       0       0       0       0       0       0       
      +0       0
  2405 ;;      Temps:          0       2       0       0       0       0       0       0       0       0       0       0       
      +0       0
  2406 ;;      Totals:         0       4       0       0       0       0       0       0       0       0       0       0       
      +0       0
  2407 ;;Total ram usage:        4 bytes
  2408 ;; Hardware stack levels required when called:    6
  2409 ;; This function calls:
  2410 ;;		_ConfigureOscillator
  2411 ;;		_Display_PrintInteger
  2412 ;;		_InitApp
  2413 ;; This function is called by:
  2414 ;;		Startup code after reset
  2415 ;; This function uses a non-reentrant model
  2416 ;;
  2417                           
  2418                           
  2419                           ;psect for function _main
  2420  0123                     _main:	
  2421                           
  2422                           ;main.c: 32: uint16_t i = 0;
  2423                           
  2424                           ;incstack = 0
  2425                           ; Regs used in _main: [wreg-fsr1h+status,2+status,0+pclath+cstack]
  2426  0123  0020               	movlb	0	; select bank0
  2427  0124  01AF               	clrf	main@i
  2428  0125  01B0               	clrf	main@i+1
  2429                           
  2430                           ;main.c: 34: ConfigureOscillator();
  2431  0126  3181  218F  3181   	fcall	_ConfigureOscillator
  2432                           
  2433                           ;main.c: 37: InitApp();
  2434  0129  3181  2157  3181   	fcall	_InitApp
  2435  012C                     l943:	
  2436                           ;main.c: 40: while(1)
  2437                           
  2438                           
  2439                           ;main.c: 41: {
  2440                           ;main.c: 43: Display_PrintInteger(i++);
  2441  012C  0020               	movlb	0	; select bank0
  2442  012D  0830               	movf	main@i+1,w
  2443  012E  00AA               	movwf	Display_PrintInteger@num+1
  2444  012F  082F               	movf	main@i,w
  2445  0130  00A9               	movwf	Display_PrintInteger@num
  2446  0131  3180  2024  3181   	fcall	_Display_PrintInteger
  2447  0134  3001               	movlw	1
  2448  0135  0020               	movlb	0	; select bank0
  2449  0136  07AF               	addwf	main@i,f
  2450  0137  3000               	movlw	0
  2451  0138  3DB0               	addwfc	main@i+1,f
  2452                           
  2453                           ;main.c: 44: _delay((unsigned long)((1)*(32000000L/4000.0)));
  2454  0139  300B               	movlw	11
  2455  013A  00AE               	movwf	??_main+1
  2456  013B  3062               	movlw	98
  2457  013C  00AD               	movwf	??_main
  2458  013D                     u397:	
  2459  013D  0BAD               	decfsz	??_main,f
  2460  013E  293D               	goto	u397
  2461  013F  0BAE               	decfsz	??_main+1,f
  2462  0140  293D               	goto	u397
  2463  0141  0000               	nop
  2464  0142  292C               	goto	l943
  2465  0143                     __end_of_main:	
  2466                           
  2467                           	psect	text1
  2468  0157                     __ptext1:	
  2469 ;; *************** function _InitApp *****************
  2470 ;; Defined at:
  2471 ;;		line 47 in file "user.c"
  2472 ;; Parameters:    Size  Location     Type
  2473 ;;		None
  2474 ;; Auto vars:     Size  Location     Type
  2475 ;;		None
  2476 ;; Return value:  Size  Location     Type
  2477 ;;		None               void
  2478 ;; Registers used:
  2479 ;;		wreg, status,2, status,0, pclath, cstack
  2480 ;; Tracked objects:
  2481 ;;		On entry : 0/0
  2482 ;;		On exit  : 0/0
  2483 ;;		Unchanged: 0/0
  2484 ;; Data sizes:     COMMON   BANK0   BANK1   BANK2   BANK3   BANK4   BANK5   BANK6   BANK7   BANK8   BANK9  BANK10  BANK1
      +1  BANK12
  2485 ;;      Params:         0       0       0       0       0       0       0       0       0       0       0       0       
      +0       0
  2486 ;;      Locals:         0       0       0       0       0       0       0       0       0       0       0       0       
      +0       0
  2487 ;;      Temps:          0       0       0       0       0       0       0       0       0       0       0       0       
      +0       0
  2488 ;;      Totals:         0       0       0       0       0       0       0       0       0       0       0       0       
      +0       0
  2489 ;;Total ram usage:        0 bytes
  2490 ;; Hardware stack levels used:    1
  2491 ;; Hardware stack levels required when called:    5
  2492 ;; This function calls:
  2493 ;;		___GPIO_Init
  2494 ;;		___PPS_Init
  2495 ;;		___SPI_Init
  2496 ;;		___Timer5_Init
  2497 ;; This function is called by:
  2498 ;;		_main
  2499 ;; This function uses a non-reentrant model
  2500 ;;
  2501                           
  2502                           
  2503                           ;psect for function _InitApp
  2504  0157                     _InitApp:	
  2505                           
  2506                           ;user.c: 52: __GPIO_Init();
  2507                           
  2508                           ;incstack = 0
  2509                           ; Regs used in _InitApp: [wreg+status,2+status,0+pclath+cstack]
  2510  0157  3181  21B4  3181   	fcall	___GPIO_Init
  2511                           
  2512                           ;user.c: 53: __PPS_Init();
  2513  015A  3181  217B  3181   	fcall	___PPS_Init
  2514                           
  2515                           ;user.c: 57: __SPI_Init();
  2516  015D  3181  219F  3181   	fcall	___SPI_Init
  2517                           
  2518                           ;user.c: 58: __Timer5_Init();
  2519  0160  3181  21C1         	fcall	___Timer5_Init
  2520                           
  2521                           ;user.c: 61: PIR5bits.TMR5IF = 0;
  2522  0162  0020               	movlb	0	; select bank0
  2523  0163  1214               	bcf	20,4	;volatile
  2524                           
  2525                           ;user.c: 62: PIE5bits.TMR5IE = 1;
  2526  0164  0021               	movlb	1	; select bank1
  2527  0165  1614               	bsf	20,4	;volatile
  2528                           
  2529                           ;user.c: 63: INTCONbits.PEIE = 1;
  2530  0166  170B               	bsf	11,6	;volatile
  2531                           
  2532                           ;user.c: 64: INTCONbits.GIE = 1;
  2533  0167  178B               	bsf	11,7	;volatile
  2534  0168  0008               	return
  2535  0169                     __end_of_InitApp:	
  2536                           
  2537                           	psect	text2
  2538  01C1                     __ptext2:	
  2539 ;; *************** function ___Timer5_Init *****************
  2540 ;; Defined at:
  2541 ;;		line 102 in file "user.c"
  2542 ;; Parameters:    Size  Location     Type
  2543 ;;		None
  2544 ;; Auto vars:     Size  Location     Type
  2545 ;;		None
  2546 ;; Return value:  Size  Location     Type
  2547 ;;		None               void
  2548 ;; Registers used:
  2549 ;;		wreg
  2550 ;; Tracked objects:
  2551 ;;		On entry : 0/0
  2552 ;;		On exit  : 0/0
  2553 ;;		Unchanged: 0/0
  2554 ;; Data sizes:     COMMON   BANK0   BANK1   BANK2   BANK3   BANK4   BANK5   BANK6   BANK7   BANK8   BANK9  BANK10  BANK1
      +1  BANK12
  2555 ;;      Params:         0       0       0       0       0       0       0       0       0       0       0       0       
      +0       0
  2556 ;;      Locals:         0       0       0       0       0       0       0       0       0       0       0       0       
      +0       0
  2557 ;;      Temps:          0       0       0       0       0       0       0       0       0       0       0       0       
      +0       0
  2558 ;;      Totals:         0       0       0       0       0       0       0       0       0       0       0       0       
      +0       0
  2559 ;;Total ram usage:        0 bytes
  2560 ;; Hardware stack levels used:    1
  2561 ;; Hardware stack levels required when called:    3
  2562 ;; This function calls:
  2563 ;;		Nothing
  2564 ;; This function is called by:
  2565 ;;		_InitApp
  2566 ;; This function uses a non-reentrant model
  2567 ;;
  2568                           
  2569                           
  2570                           ;psect for function ___Timer5_Init
  2571  01C1                     ___Timer5_Init:	
  2572                           
  2573                           ;user.c: 104: T5CON = 0x01;
  2574                           
  2575                           ;incstack = 0
  2576                           ; Regs used in ___Timer5_Init: [wreg]
  2577  01C1  3001               	movlw	1
  2578  01C2  0029               	movlb	9	; select bank9
  2579  01C3  009C               	movwf	28	;volatile
  2580  01C4  0008               	return
  2581  01C5                     __end_of___Timer5_Init:	
  2582                           
  2583                           	psect	text3
  2584  019F                     __ptext3:	
  2585 ;; *************** function ___SPI_Init *****************
  2586 ;; Defined at:
  2587 ;;		line 87 in file "user.c"
  2588 ;; Parameters:    Size  Location     Type
  2589 ;;		None
  2590 ;; Auto vars:     Size  Location     Type
  2591 ;;		None
  2592 ;; Return value:  Size  Location     Type
  2593 ;;		None               void
  2594 ;; Registers used:
  2595 ;;		wreg, status,2
  2596 ;; Tracked objects:
  2597 ;;		On entry : 0/0
  2598 ;;		On exit  : 0/0
  2599 ;;		Unchanged: 0/0
  2600 ;; Data sizes:     COMMON   BANK0   BANK1   BANK2   BANK3   BANK4   BANK5   BANK6   BANK7   BANK8   BANK9  BANK10  BANK1
      +1  BANK12
  2601 ;;      Params:         0       0       0       0       0       0       0       0       0       0       0       0       
      +0       0
  2602 ;;      Locals:         0       0       0       0       0       0       0       0       0       0       0       0       
      +0       0
  2603 ;;      Temps:          0       0       0       0       0       0       0       0       0       0       0       0       
      +0       0
  2604 ;;      Totals:         0       0       0       0       0       0       0       0       0       0       0       0       
      +0       0
  2605 ;;Total ram usage:        0 bytes
  2606 ;; Hardware stack levels used:    1
  2607 ;; Hardware stack levels required when called:    3
  2608 ;; This function calls:
  2609 ;;		Nothing
  2610 ;; This function is called by:
  2611 ;;		_InitApp
  2612 ;; This function uses a non-reentrant model
  2613 ;;
  2614                           
  2615                           
  2616                           ;psect for function ___SPI_Init
  2617  019F                     ___SPI_Init:	
  2618                           
  2619                           ;user.c: 89: SSP1STAT = 0x40;
  2620                           
  2621                           ;incstack = 0
  2622                           ; Regs used in ___SPI_Init: [wreg+status,2]
  2623  019F  3040               	movlw	64
  2624  01A0  0024               	movlb	4	; select bank4
  2625  01A1  0094               	movwf	20	;volatile
  2626                           
  2627                           ;user.c: 90: SSP1CON1 = 0x22;
  2628  01A2  3022               	movlw	34
  2629  01A3  0095               	movwf	21	;volatile
  2630                           
  2631                           ;user.c: 91: SSP1ADD = 0x00;
  2632  01A4  0192               	clrf	18	;volatile
  2633  01A5  0008               	return
  2634  01A6                     __end_of___SPI_Init:	
  2635                           
  2636                           	psect	text4
  2637  017B                     __ptext4:	
  2638 ;; *************** function ___PPS_Init *****************
  2639 ;; Defined at:
  2640 ;;		line 77 in file "user.c"
  2641 ;; Parameters:    Size  Location     Type
  2642 ;;		None
  2643 ;; Auto vars:     Size  Location     Type
  2644 ;;		None
  2645 ;; Return value:  Size  Location     Type
  2646 ;;		None               void
  2647 ;; Registers used:
  2648 ;;		wreg, status,2, status,0, pclath, cstack
  2649 ;; Tracked objects:
  2650 ;;		On entry : 0/0
  2651 ;;		On exit  : 0/0
  2652 ;;		Unchanged: 0/0
  2653 ;; Data sizes:     COMMON   BANK0   BANK1   BANK2   BANK3   BANK4   BANK5   BANK6   BANK7   BANK8   BANK9  BANK10  BANK1
      +1  BANK12
  2654 ;;      Params:         0       0       0       0       0       0       0       0       0       0       0       0       
      +0       0
  2655 ;;      Locals:         0       0       0       0       0       0       0       0       0       0       0       0       
      +0       0
  2656 ;;      Temps:          0       0       0       0       0       0       0       0       0       0       0       0       
      +0       0
  2657 ;;      Totals:         0       0       0       0       0       0       0       0       0       0       0       0       
      +0       0
  2658 ;;Total ram usage:        0 bytes
  2659 ;; Hardware stack levels used:    1
  2660 ;; Hardware stack levels required when called:    4
  2661 ;; This function calls:
  2662 ;;		___PPS_Lock
  2663 ;;		___PPS_Unlock
  2664 ;; This function is called by:
  2665 ;;		_InitApp
  2666 ;; This function uses a non-reentrant model
  2667 ;;
  2668                           
  2669                           
  2670                           ;psect for function ___PPS_Init
  2671  017B                     ___PPS_Init:	
  2672                           
  2673                           ;user.c: 79: __PPS_Unlock();
  2674                           
  2675                           ;incstack = 0
  2676                           ; Regs used in ___PPS_Init: [wreg+status,2+status,0+pclath+cstack]
  2677  017B  3181  21A6  3181   	fcall	___PPS_Unlock
  2678                           
  2679                           ;user.c: 81: RC0PPS = 0x10;
  2680  017E  3010               	movlw	16
  2681  017F  003D               	movlb	29	; select bank29
  2682  0180  00A0               	movwf	32	;volatile
  2683                           
  2684                           ;user.c: 82: RC2PPS = 0x11;
  2685  0181  3011               	movlw	17
  2686  0182  00A2               	movwf	34	;volatile
  2687                           
  2688                           ;user.c: 84: __PPS_Lock();
  2689  0183  3181  21AD         	fcall	___PPS_Lock
  2690  0185  0008               	return
  2691  0186                     __end_of___PPS_Init:	
  2692                           
  2693                           	psect	text5
  2694  01A6                     __ptext5:	
  2695 ;; *************** function ___PPS_Unlock *****************
  2696 ;; Defined at:
  2697 ;;		line 33 in file "user.c"
  2698 ;; Parameters:    Size  Location     Type
  2699 ;;		None
  2700 ;; Auto vars:     Size  Location     Type
  2701 ;;		None
  2702 ;; Return value:  Size  Location     Type
  2703 ;;		None               void
  2704 ;; Registers used:
  2705 ;;		wreg
  2706 ;; Tracked objects:
  2707 ;;		On entry : 0/0
  2708 ;;		On exit  : 0/0
  2709 ;;		Unchanged: 0/0
  2710 ;; Data sizes:     COMMON   BANK0   BANK1   BANK2   BANK3   BANK4   BANK5   BANK6   BANK7   BANK8   BANK9  BANK10  BANK1
      +1  BANK12
  2711 ;;      Params:         0       0       0       0       0       0       0       0       0       0       0       0       
      +0       0
  2712 ;;      Locals:         0       0       0       0       0       0       0       0       0       0       0       0       
      +0       0
  2713 ;;      Temps:          0       0       0       0       0       0       0       0       0       0       0       0       
      +0       0
  2714 ;;      Totals:         0       0       0       0       0       0       0       0       0       0       0       0       
      +0       0
  2715 ;;Total ram usage:        0 bytes
  2716 ;; Hardware stack levels used:    1
  2717 ;; Hardware stack levels required when called:    3
  2718 ;; This function calls:
  2719 ;;		Nothing
  2720 ;; This function is called by:
  2721 ;;		___PPS_Init
  2722 ;; This function uses a non-reentrant model
  2723 ;;
  2724                           
  2725                           
  2726                           ;psect for function ___PPS_Unlock
  2727  01A6                     ___PPS_Unlock:	
  2728                           
  2729                           ;user.c: 35: PPSLOCK = 0x55;
  2730                           
  2731                           ;incstack = 0
  2732                           ; Regs used in ___PPS_Unlock: [wreg]
  2733  01A6  3055               	movlw	85
  2734  01A7  003C               	movlb	28	; select bank28
  2735  01A8  008F               	movwf	15	;volatile
  2736                           
  2737                           ;user.c: 36: PPSLOCK = 0xAA;
  2738  01A9  30AA               	movlw	170
  2739  01AA  008F               	movwf	15	;volatile
  2740                           
  2741                           ;user.c: 37: PPSLOCKbits.PPSLOCKED = 0;
  2742  01AB  100F               	bcf	15,0	;volatile
  2743  01AC  0008               	return
  2744  01AD                     __end_of___PPS_Unlock:	
  2745                           
  2746                           	psect	text6
  2747  01AD                     __ptext6:	
  2748 ;; *************** function ___PPS_Lock *****************
  2749 ;; Defined at:
  2750 ;;		line 40 in file "user.c"
  2751 ;; Parameters:    Size  Location     Type
  2752 ;;		None
  2753 ;; Auto vars:     Size  Location     Type
  2754 ;;		None
  2755 ;; Return value:  Size  Location     Type
  2756 ;;		None               void
  2757 ;; Registers used:
  2758 ;;		wreg
  2759 ;; Tracked objects:
  2760 ;;		On entry : 0/0
  2761 ;;		On exit  : 0/0
  2762 ;;		Unchanged: 0/0
  2763 ;; Data sizes:     COMMON   BANK0   BANK1   BANK2   BANK3   BANK4   BANK5   BANK6   BANK7   BANK8   BANK9  BANK10  BANK1
      +1  BANK12
  2764 ;;      Params:         0       0       0       0       0       0       0       0       0       0       0       0       
      +0       0
  2765 ;;      Locals:         0       0       0       0       0       0       0       0       0       0       0       0       
      +0       0
  2766 ;;      Temps:          0       0       0       0       0       0       0       0       0       0       0       0       
      +0       0
  2767 ;;      Totals:         0       0       0       0       0       0       0       0       0       0       0       0       
      +0       0
  2768 ;;Total ram usage:        0 bytes
  2769 ;; Hardware stack levels used:    1
  2770 ;; Hardware stack levels required when called:    3
  2771 ;; This function calls:
  2772 ;;		Nothing
  2773 ;; This function is called by:
  2774 ;;		___PPS_Init
  2775 ;; This function uses a non-reentrant model
  2776 ;;
  2777                           
  2778                           
  2779                           ;psect for function ___PPS_Lock
  2780  01AD                     ___PPS_Lock:	
  2781                           
  2782                           ;user.c: 42: PPSLOCK = 0x55;
  2783                           
  2784                           ;incstack = 0
  2785                           ; Regs used in ___PPS_Lock: [wreg]
  2786  01AD  3055               	movlw	85
  2787  01AE  003C               	movlb	28	; select bank28
  2788  01AF  008F               	movwf	15	;volatile
  2789                           
  2790                           ;user.c: 43: PPSLOCK = 0xAA;
  2791  01B0  30AA               	movlw	170
  2792  01B1  008F               	movwf	15	;volatile
  2793                           
  2794                           ;user.c: 44: PPSLOCKbits.PPSLOCKED = 1;
  2795  01B2  140F               	bsf	15,0	;volatile
  2796  01B3  0008               	return
  2797  01B4                     __end_of___PPS_Lock:	
  2798                           
  2799                           	psect	text7
  2800  01B4                     __ptext7:	
  2801 ;; *************** function ___GPIO_Init *****************
  2802 ;; Defined at:
  2803 ;;		line 68 in file "user.c"
  2804 ;; Parameters:    Size  Location     Type
  2805 ;;		None
  2806 ;; Auto vars:     Size  Location     Type
  2807 ;;		None
  2808 ;; Return value:  Size  Location     Type
  2809 ;;		None               void
  2810 ;; Registers used:
  2811 ;;		None
  2812 ;; Tracked objects:
  2813 ;;		On entry : 0/0
  2814 ;;		On exit  : 0/0
  2815 ;;		Unchanged: 0/0
  2816 ;; Data sizes:     COMMON   BANK0   BANK1   BANK2   BANK3   BANK4   BANK5   BANK6   BANK7   BANK8   BANK9  BANK10  BANK1
      +1  BANK12
  2817 ;;      Params:         0       0       0       0       0       0       0       0       0       0       0       0       
      +0       0
  2818 ;;      Locals:         0       0       0       0       0       0       0       0       0       0       0       0       
      +0       0
  2819 ;;      Temps:          0       0       0       0       0       0       0       0       0       0       0       0       
      +0       0
  2820 ;;      Totals:         0       0       0       0       0       0       0       0       0       0       0       0       
      +0       0
  2821 ;;Total ram usage:        0 bytes
  2822 ;; Hardware stack levels used:    1
  2823 ;; Hardware stack levels required when called:    3
  2824 ;; This function calls:
  2825 ;;		Nothing
  2826 ;; This function is called by:
  2827 ;;		_InitApp
  2828 ;; This function uses a non-reentrant model
  2829 ;;
  2830                           
  2831                           
  2832                           ;psect for function ___GPIO_Init
  2833  01B4                     ___GPIO_Init:	
  2834                           
  2835                           ;user.c: 71: TRISCbits.TRISC0 = 0;
  2836                           
  2837                           ;incstack = 0
  2838                           ; Regs used in ___GPIO_Init: []
  2839  01B4  0021               	movlb	1	; select bank1
  2840  01B5  100E               	bcf	14,0	;volatile
  2841                           
  2842                           ;user.c: 72: TRISCbits.TRISC1 = 0;
  2843  01B6  108E               	bcf	14,1	;volatile
  2844                           
  2845                           ;user.c: 73: TRISCbits.TRISC2 = 0;
  2846  01B7  110E               	bcf	14,2	;volatile
  2847                           
  2848                           ;user.c: 75: LATCbits.LATC1 = 1;
  2849  01B8  0022               	movlb	2	; select bank2
  2850  01B9  148E               	bsf	14,1	;volatile
  2851  01BA  0008               	return
  2852  01BB                     __end_of___GPIO_Init:	
  2853                           
  2854                           	psect	text8
  2855  0024                     __ptext8:	
  2856 ;; *************** function _Display_PrintInteger *****************
  2857 ;; Defined at:
  2858 ;;		line 185 in file "user.c"
  2859 ;; Parameters:    Size  Location     Type
  2860 ;;  num             2    0[BANK0 ] unsigned int 
  2861 ;; Auto vars:     Size  Location     Type
  2862 ;;  p               1    3[BANK0 ] PTR unsigned char 
  2863 ;;		 -> video_buffer.buffer2(4), video_buffer(9), 
  2864 ;; Return value:  Size  Location     Type
  2865 ;;		None               void
  2866 ;; Registers used:
  2867 ;;		wreg, fsr0l, fsr0h, fsr1l, fsr1h, status,2, status,0, pclath, cstack
  2868 ;; Tracked objects:
  2869 ;;		On entry : 0/0
  2870 ;;		On exit  : 0/0
  2871 ;;		Unchanged: 0/0
  2872 ;; Data sizes:     COMMON   BANK0   BANK1   BANK2   BANK3   BANK4   BANK5   BANK6   BANK7   BANK8   BANK9  BANK10  BANK1
      +1  BANK12
  2873 ;;      Params:         0       2       0       0       0       0       0       0       0       0       0       0       
      +0       0
  2874 ;;      Locals:         0       1       0       0       0       0       0       0       0       0       0       0       
      +0       0
  2875 ;;      Temps:          0       1       0       0       0       0       0       0       0       0       0       0       
      +0       0
  2876 ;;      Totals:         0       4       0       0       0       0       0       0       0       0       0       0       
      +0       0
  2877 ;;Total ram usage:        4 bytes
  2878 ;; Hardware stack levels used:    1
  2879 ;; Hardware stack levels required when called:    4
  2880 ;; This function calls:
  2881 ;;		_Display_Clear
  2882 ;;		___Display_digit_to_mem
  2883 ;;		___lwdiv
  2884 ;;		___lwmod
  2885 ;; This function is called by:
  2886 ;;		_main
  2887 ;; This function uses a non-reentrant model
  2888 ;;
  2889                           
  2890                           
  2891                           ;psect for function _Display_PrintInteger
  2892  0024                     _Display_PrintInteger:	
  2893                           
  2894                           ;user.c: 187: uint8_t *p = &video_buffer.buffer2[3];
  2895                           
  2896                           ;incstack = 0
  2897                           ; Regs used in _Display_PrintInteger: [wreg-fsr1h+status,2+status,0+pclath+cstack]
  2898  0024  3027               	movlw	(low ((_video_buffer| 0+7)))& (0+255)
  2899  0025  0020               	movlb	0	; select bank0
  2900  0026  00AB               	movwf	??_Display_PrintInteger
  2901  0027  082B               	movf	??_Display_PrintInteger,w
  2902  0028  00AC               	movwf	Display_PrintInteger@p
  2903                           
  2904                           ;user.c: 189: num %= 10000;
  2905  0029  3010               	movlw	16
  2906  002A  00F3               	movwf	___lwmod@divisor
  2907  002B  3027               	movlw	39
  2908  002C  00F4               	movwf	___lwmod@divisor+1
  2909  002D  082A               	movf	Display_PrintInteger@num+1,w
  2910  002E  00F6               	movwf	___lwmod@dividend+1
  2911  002F  0829               	movf	Display_PrintInteger@num,w
  2912  0030  00F5               	movwf	___lwmod@dividend
  2913  0031  3180  20D5  3180   	fcall	___lwmod
  2914  0034  0874               	movf	?___lwmod+1,w
  2915  0035  0020               	movlb	0	; select bank0
  2916  0036  00AA               	movwf	Display_PrintInteger@num+1
  2917  0037  0873               	movf	?___lwmod,w
  2918  0038  00A9               	movwf	Display_PrintInteger@num
  2919                           
  2920                           ;user.c: 190: Display_Clear();
  2921  0039  3181  2169  3180   	fcall	_Display_Clear
  2922  003C                     l923:	
  2923                           ;user.c: 192: do {
  2924                           
  2925                           
  2926                           ;user.c: 193: *p = __Display_digit_to_mem(num % 10);
  2927  003C  300A               	movlw	10
  2928  003D  00F3               	movwf	___lwmod@divisor
  2929  003E  3000               	movlw	0
  2930  003F  00F4               	movwf	___lwmod@divisor+1
  2931  0040  0020               	movlb	0	; select bank0
  2932  0041  082A               	movf	Display_PrintInteger@num+1,w
  2933  0042  00F6               	movwf	___lwmod@dividend+1
  2934  0043  0829               	movf	Display_PrintInteger@num,w
  2935  0044  00F5               	movwf	___lwmod@dividend
  2936  0045  3180  20D5  3180   	fcall	___lwmod
  2937  0048  0873               	movf	?___lwmod,w
  2938  0049  3181  2101  3180   	fcall	___Display_digit_to_mem
  2939  004C  0020               	movlb	0	; select bank0
  2940  004D  00AB               	movwf	??_Display_PrintInteger
  2941  004E  082C               	movf	Display_PrintInteger@p,w
  2942  004F  0086               	movwf	6
  2943  0050  0187               	clrf	7
  2944  0051  082B               	movf	??_Display_PrintInteger,w
  2945  0052  0081               	movwf	1
  2946                           
  2947                           ;user.c: 194: --p;
  2948  0053  3001               	movlw	1
  2949  0054  02AC               	subwf	Display_PrintInteger@p,f
  2950                           
  2951                           ;user.c: 195: num /= 10;
  2952  0055  300A               	movlw	10
  2953  0056  00F3               	movwf	___lwdiv@divisor
  2954  0057  3000               	movlw	0
  2955  0058  00F4               	movwf	___lwdiv@divisor+1
  2956  0059  082A               	movf	Display_PrintInteger@num+1,w
  2957  005A  00F6               	movwf	___lwdiv@dividend+1
  2958  005B  0829               	movf	Display_PrintInteger@num,w
  2959  005C  00F5               	movwf	___lwdiv@dividend
  2960  005D  3180  20A1  3180   	fcall	___lwdiv
  2961  0060  0874               	movf	?___lwdiv+1,w
  2962  0061  0020               	movlb	0	; select bank0
  2963  0062  00AA               	movwf	Display_PrintInteger@num+1
  2964  0063  0873               	movf	?___lwdiv,w
  2965  0064  00A9               	movwf	Display_PrintInteger@num
  2966                           
  2967                           ;user.c: 196: }while(num > 0);
  2968  0065  0829               	movf	Display_PrintInteger@num,w
  2969  0066  042A               	iorwf	Display_PrintInteger@num+1,w
  2970  0067  1903               	btfsc	3,2
  2971  0068  0008               	return
  2972  0069  283C               	goto	l923
  2973  006A                     __end_of_Display_PrintInteger:	
  2974                           
  2975                           	psect	text9
  2976  00D5                     __ptext9:	
  2977 ;; *************** function ___lwmod *****************
  2978 ;; Defined at:
  2979 ;;		line 6 in file "C:\Program Files (x86)\Microchip\xc8\v1.34\sources\common\lwmod.c"
  2980 ;; Parameters:    Size  Location     Type
  2981 ;;  divisor         2    3[COMMON] unsigned int 
  2982 ;;  dividend        2    5[COMMON] unsigned int 
  2983 ;; Auto vars:     Size  Location     Type
  2984 ;;  counter         1    8[COMMON] unsigned char 
  2985 ;; Return value:  Size  Location     Type
  2986 ;;                  2    3[COMMON] unsigned int 
  2987 ;; Registers used:
  2988 ;;		wreg, status,2, status,0
  2989 ;; Tracked objects:
  2990 ;;		On entry : 0/0
  2991 ;;		On exit  : 0/0
  2992 ;;		Unchanged: 0/0
  2993 ;; Data sizes:     COMMON   BANK0   BANK1   BANK2   BANK3   BANK4   BANK5   BANK6   BANK7   BANK8   BANK9  BANK10  BANK1
      +1  BANK12
  2994 ;;      Params:         4       0       0       0       0       0       0       0       0       0       0       0       
      +0       0
  2995 ;;      Locals:         1       0       0       0       0       0       0       0       0       0       0       0       
      +0       0
  2996 ;;      Temps:          1       0       0       0       0       0       0       0       0       0       0       0       
      +0       0
  2997 ;;      Totals:         6       0       0       0       0       0       0       0       0       0       0       0       
      +0       0
  2998 ;;Total ram usage:        6 bytes
  2999 ;; Hardware stack levels used:    1
  3000 ;; Hardware stack levels required when called:    3
  3001 ;; This function calls:
  3002 ;;		Nothing
  3003 ;; This function is called by:
  3004 ;;		_Display_PrintInteger
  3005 ;; This function uses a non-reentrant model
  3006 ;;
  3007                           
  3008                           
  3009                           ;psect for function ___lwmod
  3010  00D5                     ___lwmod:	
  3011                           
  3012                           ;incstack = 0
  3013                           ; Regs used in ___lwmod: [wreg+status,2+status,0]
  3014  00D5  0873               	movf	___lwmod@divisor,w
  3015  00D6  0474               	iorwf	___lwmod@divisor+1,w
  3016  00D7  1903               	btfsc	3,2
  3017  00D8  28FC               	goto	l877
  3018  00D9  01F8               	clrf	___lwmod@counter
  3019  00DA  0AF8               	incf	___lwmod@counter,f
  3020  00DB                     l867:	
  3021  00DB  1BF4               	btfsc	___lwmod@divisor+1,7
  3022  00DC  28E7               	goto	l869
  3023  00DD  3001               	movlw	1
  3024  00DE                     u295:	
  3025  00DE  35F3               	lslf	___lwmod@divisor,f
  3026  00DF  0DF4               	rlf	___lwmod@divisor+1,f
  3027  00E0  0B89               	decfsz	9,f
  3028  00E1  28DE               	goto	u295
  3029  00E2  3001               	movlw	1
  3030  00E3  00F7               	movwf	??___lwmod
  3031  00E4  0877               	movf	??___lwmod,w
  3032  00E5  07F8               	addwf	___lwmod@counter,f
  3033  00E6  28DB               	goto	l867
  3034  00E7                     l869:	
  3035  00E7  0874               	movf	___lwmod@divisor+1,w
  3036  00E8  0276               	subwf	___lwmod@dividend+1,w
  3037  00E9  1D03               	skipz
  3038  00EA  28ED               	goto	u315
  3039  00EB  0873               	movf	___lwmod@divisor,w
  3040  00EC  0275               	subwf	___lwmod@dividend,w
  3041  00ED                     u315:	
  3042  00ED  1C03               	skipc
  3043  00EE  28F3               	goto	l873
  3044  00EF  0873               	movf	___lwmod@divisor,w
  3045  00F0  02F5               	subwf	___lwmod@dividend,f
  3046  00F1  0874               	movf	___lwmod@divisor+1,w
  3047  00F2  3BF6               	subwfb	___lwmod@dividend+1,f
  3048  00F3                     l873:	
  3049  00F3  3001               	movlw	1
  3050  00F4                     u325:	
  3051  00F4  36F4               	lsrf	___lwmod@divisor+1,f
  3052  00F5  0CF3               	rrf	___lwmod@divisor,f
  3053  00F6  0B89               	decfsz	9,f
  3054  00F7  28F4               	goto	u325
  3055  00F8  3001               	movlw	1
  3056  00F9  02F8               	subwf	___lwmod@counter,f
  3057  00FA  1D03               	btfss	3,2
  3058  00FB  28E7               	goto	l869
  3059  00FC                     l877:	
  3060  00FC  0876               	movf	___lwmod@dividend+1,w
  3061  00FD  00F4               	movwf	?___lwmod+1
  3062  00FE  0875               	movf	___lwmod@dividend,w
  3063  00FF  00F3               	movwf	?___lwmod
  3064  0100  0008               	return
  3065  0101                     __end_of___lwmod:	
  3066                           
  3067                           	psect	text10
  3068  00A1                     __ptext10:	
  3069 ;; *************** function ___lwdiv *****************
  3070 ;; Defined at:
  3071 ;;		line 6 in file "C:\Program Files (x86)\Microchip\xc8\v1.34\sources\common\lwdiv.c"
  3072 ;; Parameters:    Size  Location     Type
  3073 ;;  divisor         2    3[COMMON] unsigned int 
  3074 ;;  dividend        2    5[COMMON] unsigned int 
  3075 ;; Auto vars:     Size  Location     Type
  3076 ;;  quotient        2    8[COMMON] unsigned int 
  3077 ;;  counter         1   10[COMMON] unsigned char 
  3078 ;; Return value:  Size  Location     Type
  3079 ;;                  2    3[COMMON] unsigned int 
  3080 ;; Registers used:
  3081 ;;		wreg, status,2, status,0
  3082 ;; Tracked objects:
  3083 ;;		On entry : 0/0
  3084 ;;		On exit  : 0/0
  3085 ;;		Unchanged: 0/0
  3086 ;; Data sizes:     COMMON   BANK0   BANK1   BANK2   BANK3   BANK4   BANK5   BANK6   BANK7   BANK8   BANK9  BANK10  BANK1
      +1  BANK12
  3087 ;;      Params:         4       0       0       0       0       0       0       0       0       0       0       0       
      +0       0
  3088 ;;      Locals:         3       0       0       0       0       0       0       0       0       0       0       0       
      +0       0
  3089 ;;      Temps:          1       0       0       0       0       0       0       0       0       0       0       0       
      +0       0
  3090 ;;      Totals:         8       0       0       0       0       0       0       0       0       0       0       0       
      +0       0
  3091 ;;Total ram usage:        8 bytes
  3092 ;; Hardware stack levels used:    1
  3093 ;; Hardware stack levels required when called:    3
  3094 ;; This function calls:
  3095 ;;		Nothing
  3096 ;; This function is called by:
  3097 ;;		_Display_PrintInteger
  3098 ;; This function uses a non-reentrant model
  3099 ;;
  3100                           
  3101                           
  3102                           ;psect for function ___lwdiv
  3103  00A1                     ___lwdiv:	
  3104                           
  3105                           ;incstack = 0
  3106                           ; Regs used in ___lwdiv: [wreg+status,2+status,0]
  3107  00A1  01F8               	clrf	___lwdiv@quotient
  3108  00A2  01F9               	clrf	___lwdiv@quotient+1
  3109  00A3  0873               	movf	___lwdiv@divisor,w
  3110  00A4  0474               	iorwf	___lwdiv@divisor+1,w
  3111  00A5  1903               	btfsc	3,2
  3112  00A6  28D0               	goto	l855
  3113  00A7  01FA               	clrf	___lwdiv@counter
  3114  00A8  0AFA               	incf	___lwdiv@counter,f
  3115  00A9                     l843:	
  3116  00A9  1BF4               	btfsc	___lwdiv@divisor+1,7
  3117  00AA  28B5               	goto	l845
  3118  00AB  3001               	movlw	1
  3119  00AC                     u225:	
  3120  00AC  35F3               	lslf	___lwdiv@divisor,f
  3121  00AD  0DF4               	rlf	___lwdiv@divisor+1,f
  3122  00AE  0B89               	decfsz	9,f
  3123  00AF  28AC               	goto	u225
  3124  00B0  3001               	movlw	1
  3125  00B1  00F7               	movwf	??___lwdiv
  3126  00B2  0877               	movf	??___lwdiv,w
  3127  00B3  07FA               	addwf	___lwdiv@counter,f
  3128  00B4  28A9               	goto	l843
  3129  00B5                     l845:	
  3130  00B5  3001               	movlw	1
  3131  00B6                     u245:	
  3132  00B6  35F8               	lslf	___lwdiv@quotient,f
  3133  00B7  0DF9               	rlf	___lwdiv@quotient+1,f
  3134  00B8  0B89               	decfsz	9,f
  3135  00B9  28B6               	goto	u245
  3136  00BA  0874               	movf	___lwdiv@divisor+1,w
  3137  00BB  0276               	subwf	___lwdiv@dividend+1,w
  3138  00BC  1D03               	skipz
  3139  00BD  28C0               	goto	u255
  3140  00BE  0873               	movf	___lwdiv@divisor,w
  3141  00BF  0275               	subwf	___lwdiv@dividend,w
  3142  00C0                     u255:	
  3143  00C0  1C03               	skipc
  3144  00C1  28C7               	goto	l851
  3145  00C2  0873               	movf	___lwdiv@divisor,w
  3146  00C3  02F5               	subwf	___lwdiv@dividend,f
  3147  00C4  0874               	movf	___lwdiv@divisor+1,w
  3148  00C5  3BF6               	subwfb	___lwdiv@dividend+1,f
  3149  00C6  1478               	bsf	___lwdiv@quotient,0
  3150  00C7                     l851:	
  3151  00C7  3001               	movlw	1
  3152  00C8                     u265:	
  3153  00C8  36F4               	lsrf	___lwdiv@divisor+1,f
  3154  00C9  0CF3               	rrf	___lwdiv@divisor,f
  3155  00CA  0B89               	decfsz	9,f
  3156  00CB  28C8               	goto	u265
  3157  00CC  3001               	movlw	1
  3158  00CD  02FA               	subwf	___lwdiv@counter,f
  3159  00CE  1D03               	btfss	3,2
  3160  00CF  28B5               	goto	l845
  3161  00D0                     l855:	
  3162  00D0  0879               	movf	___lwdiv@quotient+1,w
  3163  00D1  00F4               	movwf	?___lwdiv+1
  3164  00D2  0878               	movf	___lwdiv@quotient,w
  3165  00D3  00F3               	movwf	?___lwdiv
  3166  00D4  0008               	return
  3167  00D5                     __end_of___lwdiv:	
  3168                           
  3169                           	psect	text11
  3170  0101                     __ptext11:	
  3171 ;; *************** function ___Display_digit_to_mem *****************
  3172 ;; Defined at:
  3173 ;;		line 110 in file "user.c"
  3174 ;; Parameters:    Size  Location     Type
  3175 ;;  digit           1    wreg     unsigned char 
  3176 ;; Auto vars:     Size  Location     Type
  3177 ;;  digit           1    3[COMMON] unsigned char 
  3178 ;; Return value:  Size  Location     Type
  3179 ;;                  1    wreg      unsigned char 
  3180 ;; Registers used:
  3181 ;;		wreg, fsr0l, fsr0h, status,2, status,0
  3182 ;; Tracked objects:
  3183 ;;		On entry : 0/0
  3184 ;;		On exit  : 0/0
  3185 ;;		Unchanged: 0/0
  3186 ;; Data sizes:     COMMON   BANK0   BANK1   BANK2   BANK3   BANK4   BANK5   BANK6   BANK7   BANK8   BANK9  BANK10  BANK1
      +1  BANK12
  3187 ;;      Params:         0       0       0       0       0       0       0       0       0       0       0       0       
      +0       0
  3188 ;;      Locals:         1       0       0       0       0       0       0       0       0       0       0       0       
      +0       0
  3189 ;;      Temps:          0       0       0       0       0       0       0       0       0       0       0       0       
      +0       0
  3190 ;;      Totals:         1       0       0       0       0       0       0       0       0       0       0       0       
      +0       0
  3191 ;;Total ram usage:        1 bytes
  3192 ;; Hardware stack levels used:    1
  3193 ;; Hardware stack levels required when called:    3
  3194 ;; This function calls:
  3195 ;;		Nothing
  3196 ;; This function is called by:
  3197 ;;		_Display_PrintInteger
  3198 ;; This function uses a non-reentrant model
  3199 ;;
  3200                           
  3201                           
  3202                           ;psect for function ___Display_digit_to_mem
  3203  0101                     ___Display_digit_to_mem:	
  3204                           
  3205                           ;incstack = 0
  3206                           ; Regs used in ___Display_digit_to_mem: [wreg-fsr0h+status,2+status,0]
  3207                           ;___Display_digit_to_mem@digit stored from wreg
  3208  0101  00F3               	movwf	___Display_digit_to_mem@digit
  3209                           
  3210                           ;user.c: 112: switch(digit) {
  3211  0102  2917               	goto	l821
  3212  0103                     l779:	
  3213                           ;user.c: 113: case 0:
  3214                           
  3215                           
  3216                           ;user.c: 114: return (~(0x01)) &
  3217                           ;user.c: 115: (~(0x02)) &
  3218                           ;user.c: 116: (~(0x04)) &
  3219                           ;user.c: 117: (~(0x08)) &
  3220                           ;user.c: 118: (~(0x10)) &
  3221                           ;user.c: 119: (~(0x20));
  3222  0103  30C0               	movlw	192
  3223  0104  0008               	return
  3224  0105                     l783:	
  3225                           ;user.c: 120: case 1:
  3226                           
  3227                           
  3228                           ;user.c: 121: return (~(0x02)) &
  3229                           ;user.c: 122: (~(0x04));
  3230  0105  30F9               	movlw	249
  3231  0106  0008               	return
  3232  0107                     l787:	
  3233                           ;user.c: 123: case 2:
  3234                           
  3235                           
  3236                           ;user.c: 124: return (~(0x01)) &
  3237                           ;user.c: 125: (~(0x02)) &
  3238                           ;user.c: 126: (~(0x40)) &
  3239                           ;user.c: 127: (~(0x10)) &
  3240                           ;user.c: 128: (~(0x08));
  3241  0107  30A4               	movlw	164
  3242  0108  0008               	return
  3243  0109                     l791:	
  3244                           ;user.c: 129: case 3:
  3245                           
  3246                           
  3247                           ;user.c: 130: return (~(0x01)) &
  3248                           ;user.c: 131: (~(0x02)) &
  3249                           ;user.c: 132: (~(0x04)) &
  3250                           ;user.c: 133: (~(0x08)) &
  3251                           ;user.c: 134: (~(0x40));
  3252  0109  30B0               	movlw	176
  3253  010A  0008               	return
  3254  010B                     l795:	
  3255                           ;user.c: 135: case 4:
  3256                           
  3257                           
  3258                           ;user.c: 136: return (~(0x20)) &
  3259                           ;user.c: 137: (~(0x02)) &
  3260                           ;user.c: 138: (~(0x40)) &
  3261                           ;user.c: 139: (~(0x04));
  3262  010B  3099               	movlw	153
  3263  010C  0008               	return
  3264  010D                     l799:	
  3265                           ;user.c: 140: case 5:
  3266                           
  3267                           
  3268                           ;user.c: 141: return (~(0x01)) &
  3269                           ;user.c: 142: (~(0x20)) &
  3270                           ;user.c: 143: (~(0x40)) &
  3271                           ;user.c: 144: (~(0x04)) &
  3272                           ;user.c: 145: (~(0x08));
  3273  010D  3092               	movlw	146
  3274  010E  0008               	return
  3275  010F                     l803:	
  3276                           ;user.c: 146: case 6:
  3277                           
  3278                           
  3279                           ;user.c: 147: return (~(0x01)) &
  3280                           ;user.c: 148: (~(0x04)) &
  3281                           ;user.c: 149: (~(0x08)) &
  3282                           ;user.c: 150: (~(0x10)) &
  3283                           ;user.c: 151: (~(0x20)) &
  3284                           ;user.c: 152: (~(0x40));
  3285  010F  3082               	movlw	130
  3286  0110  0008               	return
  3287  0111                     l807:	
  3288                           ;user.c: 153: case 7:
  3289                           
  3290                           
  3291                           ;user.c: 154: return (~(0x01)) &
  3292                           ;user.c: 155: (~(0x02)) &
  3293                           ;user.c: 156: (~(0x04));
  3294  0111  30F8               	movlw	248
  3295  0112  0008               	return
  3296  0113                     l811:	
  3297                           ;user.c: 157: case 8:
  3298                           
  3299                           
  3300                           ;user.c: 158: return (~(0x01)) &
  3301                           ;user.c: 159: (~(0x02)) &
  3302                           ;user.c: 160: (~(0x04)) &
  3303                           ;user.c: 161: (~(0x08)) &
  3304                           ;user.c: 162: (~(0x10)) &
  3305                           ;user.c: 163: (~(0x20)) &
  3306                           ;user.c: 164: (~(0x40));
  3307  0113  3080               	movlw	128
  3308  0114  0008               	return
  3309  0115                     l815:	
  3310                           ;user.c: 165: case 9:
  3311                           
  3312                           
  3313                           ;user.c: 166: return (~(0x01)) &
  3314                           ;user.c: 167: (~(0x02)) &
  3315                           ;user.c: 168: (~(0x04)) &
  3316                           ;user.c: 169: (~(0x08)) &
  3317                           ;user.c: 170: (~(0x20)) &
  3318                           ;user.c: 171: (~(0x40));
  3319  0115  3090               	movlw	144
  3320  0116  0008               	return
  3321  0117                     l821:	
  3322                           ;user.c: 174: }
  3323                           
  3324                           ;user.c: 173: break;
  3325                           
  3326                           ;user.c: 172: default:
  3327                           
  3328  0117  0873               	movf	___Display_digit_to_mem@digit,w
  3329                           
  3330                           ; Switch size 1, requested type "space"
  3331                           ; Number of cases is 10, Range of values is 0 to 9
  3332                           ; switch strategies available:
  3333                           ; Name         Instructions Cycles
  3334                           ; direct_byte           26     6 (fixed)
  3335                           ; simple_byte           31    16 (average)
  3336                           ; jumptable            260     6 (fixed)
  3337                           ;	Chosen strategy is direct_byte
  3338  0118  0084               	movwf	4
  3339  0119  300A               	movlw	10
  3340  011A  0204               	subwf	4,w
  3341  011B  1803               	skipnc
  3342  011C  2921               	goto	l823
  3343  011D  3181               	movlp	high S969
  3344  011E  3504               	lslf	4,w
  3345  011F  3E43               	addlw	low S969
  3346  0120  0082               	movwf	2
  3347  0121                     l823:	
  3348                           
  3349                           ;user.c: 175: return 0xFF;
  3350  0121  30FF               	movlw	255
  3351  0122  0008               	return
  3352  0123                     __end_of___Display_digit_to_mem:	
  3353                           
  3354                           	psect	swtext1
  3355  0143                     __pswtext1:	
  3356  0143                     S969:	
  3357  0143  3181  2903         	ljmp	l779
  3358  0145  3181  2905         	ljmp	l783
  3359  0147  3181  2907         	ljmp	l787
  3360  0149  3181  2909         	ljmp	l791
  3361  014B  3181  290B         	ljmp	l795
  3362  014D  3181  290D         	ljmp	l799
  3363  014F  3181  290F         	ljmp	l803
  3364  0151  3181  2911         	ljmp	l807
  3365  0153  3181  2913         	ljmp	l811
  3366  0155  3181  2915         	ljmp	l815
  3367                           
  3368                           	psect	text12
  3369  0169                     __ptext12:	
  3370 ;; *************** function _Display_Clear *****************
  3371 ;; Defined at:
  3372 ;;		line 178 in file "user.c"
  3373 ;; Parameters:    Size  Location     Type
  3374 ;;		None
  3375 ;; Auto vars:     Size  Location     Type
  3376 ;;		None
  3377 ;; Return value:  Size  Location     Type
  3378 ;;		None               void
  3379 ;; Registers used:
  3380 ;;		wreg
  3381 ;; Tracked objects:
  3382 ;;		On entry : 0/0
  3383 ;;		On exit  : 0/0
  3384 ;;		Unchanged: 0/0
  3385 ;; Data sizes:     COMMON   BANK0   BANK1   BANK2   BANK3   BANK4   BANK5   BANK6   BANK7   BANK8   BANK9  BANK10  BANK1
      +1  BANK12
  3386 ;;      Params:         0       0       0       0       0       0       0       0       0       0       0       0       
      +0       0
  3387 ;;      Locals:         0       0       0       0       0       0       0       0       0       0       0       0       
      +0       0
  3388 ;;      Temps:          1       0       0       0       0       0       0       0       0       0       0       0       
      +0       0
  3389 ;;      Totals:         1       0       0       0       0       0       0       0       0       0       0       0       
      +0       0
  3390 ;;Total ram usage:        1 bytes
  3391 ;; Hardware stack levels used:    1
  3392 ;; Hardware stack levels required when called:    3
  3393 ;; This function calls:
  3394 ;;		Nothing
  3395 ;; This function is called by:
  3396 ;;		_Display_PrintInteger
  3397 ;; This function uses a non-reentrant model
  3398 ;;
  3399                           
  3400                           
  3401                           ;psect for function _Display_Clear
  3402  0169                     _Display_Clear:	
  3403                           
  3404                           ;user.c: 180: video_buffer.buffer2[0] = 0xFF;
  3405                           
  3406                           ;incstack = 0
  3407                           ; Regs used in _Display_Clear: [wreg]
  3408  0169  30FF               	movlw	255
  3409  016A  00F3               	movwf	??_Display_Clear
  3410  016B  0873               	movf	??_Display_Clear,w
  3411  016C  0020               	movlb	0	; select bank0
  3412  016D  00A4               	movwf	_video_buffer+4
  3413                           
  3414                           ;user.c: 181: video_buffer.buffer2[1] = 0xFF;
  3415  016E  30FF               	movlw	255
  3416  016F  00F3               	movwf	??_Display_Clear
  3417  0170  0873               	movf	??_Display_Clear,w
  3418  0171  00A5               	movwf	_video_buffer+5
  3419                           
  3420                           ;user.c: 182: video_buffer.buffer2[2] = 0xFF;
  3421  0172  30FF               	movlw	255
  3422  0173  00F3               	movwf	??_Display_Clear
  3423  0174  0873               	movf	??_Display_Clear,w
  3424  0175  00A6               	movwf	_video_buffer+6
  3425                           
  3426                           ;user.c: 183: video_buffer.buffer2[3] = 0xFF;
  3427  0176  30FF               	movlw	255
  3428  0177  00F3               	movwf	??_Display_Clear
  3429  0178  0873               	movf	??_Display_Clear,w
  3430  0179  00A7               	movwf	_video_buffer+7
  3431  017A  0008               	return
  3432  017B                     __end_of_Display_Clear:	
  3433                           
  3434                           	psect	text13
  3435  018F                     __ptext13:	
  3436 ;; *************** function _ConfigureOscillator *****************
  3437 ;; Defined at:
  3438 ;;		line 18 in file "system.c"
  3439 ;; Parameters:    Size  Location     Type
  3440 ;;		None
  3441 ;; Auto vars:     Size  Location     Type
  3442 ;;		None
  3443 ;; Return value:  Size  Location     Type
  3444 ;;		None               void
  3445 ;; Registers used:
  3446 ;;		wreg, status,2, status,0
  3447 ;; Tracked objects:
  3448 ;;		On entry : 0/0
  3449 ;;		On exit  : 0/0
  3450 ;;		Unchanged: 0/0
  3451 ;; Data sizes:     COMMON   BANK0   BANK1   BANK2   BANK3   BANK4   BANK5   BANK6   BANK7   BANK8   BANK9  BANK10  BANK1
      +1  BANK12
  3452 ;;      Params:         0       0       0       0       0       0       0       0       0       0       0       0       
      +0       0
  3453 ;;      Locals:         0       0       0       0       0       0       0       0       0       0       0       0       
      +0       0
  3454 ;;      Temps:          0       0       0       0       0       0       0       0       0       0       0       0       
      +0       0
  3455 ;;      Totals:         0       0       0       0       0       0       0       0       0       0       0       0       
      +0       0
  3456 ;;Total ram usage:        0 bytes
  3457 ;; Hardware stack levels used:    1
  3458 ;; Hardware stack levels required when called:    3
  3459 ;; This function calls:
  3460 ;;		Nothing
  3461 ;; This function is called by:
  3462 ;;		_main
  3463 ;; This function uses a non-reentrant model
  3464 ;;
  3465                           
  3466                           
  3467                           ;psect for function _ConfigureOscillator
  3468  018F                     _ConfigureOscillator:	
  3469                           
  3470                           ;system.c: 20: OSCCONbits.SCS = 0;
  3471                           
  3472                           ;incstack = 0
  3473                           ; Regs used in _ConfigureOscillator: [wreg+status,2+status,0]
  3474  018F  30FC               	movlw	-4
  3475  0190  0021               	movlb	1	; select bank1
  3476  0191  0599               	andwf	25,f	;volatile
  3477                           
  3478                           ;system.c: 21: OSCCONbits.IRCF = 0xF;
  3479  0192  3078               	movlw	120
  3480  0193  0499               	iorwf	25,f	;volatile
  3481  0194                     l57:	
  3482                           ;system.c: 23: while(!OSCSTATbits.HFIOFS);
  3483                           
  3484  0194  181A               	btfsc	26,0	;volatile
  3485  0195  0008               	return
  3486  0196  2994               	goto	l57
  3487  0197                     __end_of_ConfigureOscillator:	
  3488                           
  3489                           	psect	intentry
  3490  0004                     __pintentry:	
  3491 ;; *************** function _isr *****************
  3492 ;; Defined at:
  3493 ;;		line 29 in file "interrupts.c"
  3494 ;; Parameters:    Size  Location     Type
  3495 ;;		None
  3496 ;; Auto vars:     Size  Location     Type
  3497 ;;		None
  3498 ;; Return value:  Size  Location     Type
  3499 ;;		None               void
  3500 ;; Registers used:
  3501 ;;		wreg, fsr0l, fsr0h, fsr1l, fsr1h, status,2, status,0, pclath, cstack
  3502 ;; Tracked objects:
  3503 ;;		On entry : 0/0
  3504 ;;		On exit  : 0/0
  3505 ;;		Unchanged: 0/0
  3506 ;; Data sizes:     COMMON   BANK0   BANK1   BANK2   BANK3   BANK4   BANK5   BANK6   BANK7   BANK8   BANK9  BANK10  BANK1
      +1  BANK12
  3507 ;;      Params:         0       0       0       0       0       0       0       0       0       0       0       0       
      +0       0
  3508 ;;      Locals:         0       0       0       0       0       0       0       0       0       0       0       0       
      +0       0
  3509 ;;      Temps:          1       0       0       0       0       0       0       0       0       0       0       0       
      +0       0
  3510 ;;      Totals:         1       0       0       0       0       0       0       0       0       0       0       0       
      +0       0
  3511 ;;Total ram usage:        1 bytes
  3512 ;; Hardware stack levels used:    1
  3513 ;; Hardware stack levels required when called:    2
  3514 ;; This function calls:
  3515 ;;		___Timer5_isr
  3516 ;;		___unhandled_isr
  3517 ;; This function is called by:
  3518 ;;		Interrupt level 1
  3519 ;; This function uses a non-reentrant model
  3520 ;;
  3521                           
  3522  0004                     _isr:	
  3523                           
  3524                           ;incstack = 0
  3525                           ; Regs used in _isr: [wreg-fsr1h+status,2+status,0+pclath+cstack]
  3526  0004  3180               	pagesel	$
  3527  0005  0020               	movlb	0	; select bank0
  3528  0006  087F               	movf	127,w
  3529  0007  00F2               	movwf	??_isr
  3530                           
  3531                           ;interrupts.c: 31: if(PIR5bits.TMR5IF) {
  3532  0008  1E14               	btfss	20,4	;volatile
  3533  0009  280E               	goto	i1l935
  3534                           
  3535                           ;interrupts.c: 32: __Timer5_isr();
  3536  000A  3180  206A  3180   	fcall	___Timer5_isr
  3537                           
  3538                           ;interrupts.c: 33: } else {
  3539  000D  2810               	goto	i1l25
  3540  000E                     i1l935:	
  3541                           
  3542                           ;interrupts.c: 34: __unhandled_isr();
  3543  000E  3181  21C5         	fcall	___unhandled_isr
  3544  0010                     i1l25:	
  3545  0010  0872               	movf	??_isr,w
  3546  0011  0020               	movlb	0	; select bank0
  3547  0012  00FF               	movwf	127
  3548  0013  0009               	retfie
  3549  0014                     __end_of_isr:	
  3550                           
  3551                           	psect	text15
  3552  01C5                     __ptext15:	
  3553 ;; *************** function ___unhandled_isr *****************
  3554 ;; Defined at:
  3555 ;;		line 39 in file "interrupts.c"
  3556 ;; Parameters:    Size  Location     Type
  3557 ;;		None
  3558 ;; Auto vars:     Size  Location     Type
  3559 ;;		None
  3560 ;; Return value:  Size  Location     Type
  3561 ;;		None               void
  3562 ;; Registers used:
  3563 ;;		None
  3564 ;; Tracked objects:
  3565 ;;		On entry : 0/0
  3566 ;;		On exit  : 0/0
  3567 ;;		Unchanged: 0/0
  3568 ;; Data sizes:     COMMON   BANK0   BANK1   BANK2   BANK3   BANK4   BANK5   BANK6   BANK7   BANK8   BANK9  BANK10  BANK1
      +1  BANK12
  3569 ;;      Params:         0       0       0       0       0       0       0       0       0       0       0       0       
      +0       0
  3570 ;;      Locals:         0       0       0       0       0       0       0       0       0       0       0       0       
      +0       0
  3571 ;;      Temps:          0       0       0       0       0       0       0       0       0       0       0       0       
      +0       0
  3572 ;;      Totals:         0       0       0       0       0       0       0       0       0       0       0       0       
      +0       0
  3573 ;;Total ram usage:        0 bytes
  3574 ;; Hardware stack levels used:    1
  3575 ;; This function calls:
  3576 ;;		Nothing
  3577 ;; This function is called by:
  3578 ;;		_isr
  3579 ;; This function uses a non-reentrant model
  3580 ;;
  3581                           
  3582                           
  3583                           ;psect for function ___unhandled_isr
  3584  01C5                     ___unhandled_isr:	
  3585  01C5                     i1l28:	
  3586                           ;incstack = 0
  3587                           ; Regs used in ___unhandled_isr: []
  3588                           ;interrupts.c: 41: while(1) {
  3589                           
  3590                           
  3591                           ;interrupts.c: 42: __nop();
  3592  01C5  0000               	nop
  3593  01C6  29C5               	goto	i1l28
  3594  01C7                     __end_of___unhandled_isr:	
  3595                           
  3596                           	psect	text16
  3597  006A                     __ptext16:	
  3598 ;; *************** function ___Timer5_isr *****************
  3599 ;; Defined at:
  3600 ;;		line 50 in file "interrupts.c"
  3601 ;; Parameters:    Size  Location     Type
  3602 ;;		None
  3603 ;; Auto vars:     Size  Location     Type
  3604 ;;		None
  3605 ;; Return value:  Size  Location     Type
  3606 ;;		None               void
  3607 ;; Registers used:
  3608 ;;		wreg, fsr0l, fsr0h, fsr1l, fsr1h, status,2, status,0, pclath, cstack
  3609 ;; Tracked objects:
  3610 ;;		On entry : 0/0
  3611 ;;		On exit  : 0/0
  3612 ;;		Unchanged: 0/0
  3613 ;; Data sizes:     COMMON   BANK0   BANK1   BANK2   BANK3   BANK4   BANK5   BANK6   BANK7   BANK8   BANK9  BANK10  BANK1
      +1  BANK12
  3614 ;;      Params:         0       0       0       0       0       0       0       0       0       0       0       0       
      +0       0
  3615 ;;      Locals:         0       0       0       0       0       0       0       0       0       0       0       0       
      +0       0
  3616 ;;      Temps:          1       0       0       0       0       0       0       0       0       0       0       0       
      +0       0
  3617 ;;      Totals:         1       0       0       0       0       0       0       0       0       0       0       0       
      +0       0
  3618 ;;Total ram usage:        1 bytes
  3619 ;; Hardware stack levels used:    1
  3620 ;; Hardware stack levels required when called:    1
  3621 ;; This function calls:
  3622 ;;		_SPI_SendByte
  3623 ;; This function is called by:
  3624 ;;		_isr
  3625 ;; This function uses a non-reentrant model
  3626 ;;
  3627                           
  3628                           
  3629                           ;psect for function ___Timer5_isr
  3630  006A                     ___Timer5_isr:	
  3631                           
  3632                           ;interrupts.c: 52: LATCbits.LATC1=0;
  3633                           
  3634                           ;incstack = 0
  3635                           ; Regs used in ___Timer5_isr: [wreg-fsr1h+status,2+status,0+pclath+cstack]
  3636  006A  0022               	movlb	2	; select bank2
  3637  006B  108E               	bcf	14,1	;volatile
  3638                           
  3639                           ;interrupts.c: 53: SPI_SendByte(1 << video_buffer.digit);
  3640  006C  3001               	movlw	1
  3641  006D  00F1               	movwf	??___Timer5_isr
  3642  006E  0020               	movlb	0	; select bank0
  3643  006F  0A28               	incf	_video_buffer+8,w
  3644  0070  2872               	goto	u34_24
  3645  0071                     u34_25:	
  3646  0071  35F1               	lslf	??___Timer5_isr,f
  3647  0072                     u34_24:	
  3648  0072  0B89               	decfsz	9,f
  3649  0073  2871               	goto	u34_25
  3650  0074  0871               	movf	??___Timer5_isr,w
  3651  0075  3181  2197  3180   	fcall	_SPI_SendByte
  3652                           
  3653                           ;interrupts.c: 54: SPI_SendByte(video_buffer.buffer1[video_buffer.digit]);
  3654  0078  0020               	movlb	0	; select bank0
  3655  0079  0828               	movf	_video_buffer+8,w
  3656  007A  3E20               	addlw	(low (_video_buffer| 0))& (0+255)
  3657  007B  0086               	movwf	6
  3658  007C  0187               	clrf	7
  3659  007D  0801               	movf	1,w
  3660  007E  3181  2197  3180   	fcall	_SPI_SendByte
  3661                           
  3662                           ;interrupts.c: 55: LATCbits.LATC1=1;
  3663  0081  0022               	movlb	2	; select bank2
  3664  0082  148E               	bsf	14,1	;volatile
  3665                           
  3666                           ;interrupts.c: 57: video_buffer.digit = (uint8_t)((video_buffer.digit + 1) & 0x0F);
  3667  0083  0020               	movlb	0	; select bank0
  3668  0084  0828               	movf	_video_buffer+8,w
  3669  0085  3E01               	addlw	1
  3670  0086  390F               	andlw	15
  3671  0087  00F1               	movwf	??___Timer5_isr
  3672  0088  0871               	movf	??___Timer5_isr,w
  3673  0089  00A8               	movwf	_video_buffer+8
  3674                           
  3675                           ;interrupts.c: 60: __builtin_memcpy(video_buffer.buffer1,video_buffer.buffer2,4);
  3676  008A  3020               	movlw	low (_video_buffer| 0)
  3677  008B  0086               	movwf	6
  3678  008C  0187               	clrf	7
  3679  008D  3004               	movlw	4
  3680  008E  3E20               	addlw	(low (_video_buffer| 0))& (0+255)
  3681  008F  0084               	movwf	4
  3682  0090  0185               	clrf	5
  3683  0091  3004               	movlw	4
  3684  0092  00F1               	movwf	??___Timer5_isr
  3685  0093                     u35_2m0:	
  3686  0093  0012               	moviw fsr0++
  3687  0094  001E               	movwi fsr1++
  3688  0095  0BF1               	decfsz	??___Timer5_isr,f
  3689  0096  2893               	goto	u35_2m0
  3690                           
  3691                           ;interrupts.c: 62: TMR5H = 0xEF;
  3692  0097  30EF               	movlw	239
  3693  0098  0029               	movlb	9	; select bank9
  3694  0099  009B               	movwf	27	;volatile
  3695                           
  3696                           ;interrupts.c: 63: TMR5L += 0x78;
  3697  009A  3078               	movlw	120
  3698  009B  00F1               	movwf	??___Timer5_isr
  3699  009C  0871               	movf	??___Timer5_isr,w
  3700  009D  079A               	addwf	26,f	;volatile
  3701                           
  3702                           ;interrupts.c: 64: PIR5bits.TMR5IF = 0;
  3703  009E  0020               	movlb	0	; select bank0
  3704  009F  1214               	bcf	20,4	;volatile
  3705  00A0  0008               	return
  3706  00A1                     __end_of___Timer5_isr:	
  3707                           
  3708                           	psect	text17
  3709  0197                     __ptext17:	
  3710 ;; *************** function _SPI_SendByte *****************
  3711 ;; Defined at:
  3712 ;;		line 94 in file "user.c"
  3713 ;; Parameters:    Size  Location     Type
  3714 ;;  byte            1    wreg     unsigned char 
  3715 ;; Auto vars:     Size  Location     Type
  3716 ;;  byte            1    0[COMMON] unsigned char 
  3717 ;; Return value:  Size  Location     Type
  3718 ;;		None               void
  3719 ;; Registers used:
  3720 ;;		wreg
  3721 ;; Tracked objects:
  3722 ;;		On entry : 0/0
  3723 ;;		On exit  : 0/0
  3724 ;;		Unchanged: 0/0
  3725 ;; Data sizes:     COMMON   BANK0   BANK1   BANK2   BANK3   BANK4   BANK5   BANK6   BANK7   BANK8   BANK9  BANK10  BANK1
      +1  BANK12
  3726 ;;      Params:         0       0       0       0       0       0       0       0       0       0       0       0       
      +0       0
  3727 ;;      Locals:         1       0       0       0       0       0       0       0       0       0       0       0       
      +0       0
  3728 ;;      Temps:          0       0       0       0       0       0       0       0       0       0       0       0       
      +0       0
  3729 ;;      Totals:         1       0       0       0       0       0       0       0       0       0       0       0       
      +0       0
  3730 ;;Total ram usage:        1 bytes
  3731 ;; Hardware stack levels used:    1
  3732 ;; This function calls:
  3733 ;;		Nothing
  3734 ;; This function is called by:
  3735 ;;		___Timer5_isr
  3736 ;; This function uses a non-reentrant model
  3737 ;;
  3738                           
  3739                           
  3740                           ;psect for function _SPI_SendByte
  3741  0197                     _SPI_SendByte:	
  3742                           
  3743                           ;incstack = 0
  3744                           ; Regs used in _SPI_SendByte: [wreg]
  3745                           ;SPI_SendByte@byte stored from wreg
  3746  0197  00F0               	movwf	SPI_SendByte@byte
  3747                           
  3748                           ;user.c: 96: SSP1CON1bits.WCOL = 0;
  3749  0198  0024               	movlb	4	; select bank4
  3750  0199  1395               	bcf	21,7	;volatile
  3751                           
  3752                           ;user.c: 97: SSPBUF = byte;
  3753  019A  0870               	movf	SPI_SendByte@byte,w
  3754  019B  0091               	movwf	17	;volatile
  3755  019C                     i1l123:	
  3756                           ;user.c: 99: while(!SSP1STATbits.BF);
  3757                           
  3758  019C  1814               	btfsc	20,0	;volatile
  3759  019D  0008               	return
  3760  019E  299C               	goto	i1l123
  3761  019F                     __end_of_SPI_SendByte:	
  3762  007E                     btemp	set	126	;btemp
  3763  007E                     wtemp	set	126
  3764  007E                     wtemp0	set	126
  3765  0080                     wtemp1	set	128
  3766  0082                     wtemp2	set	130
  3767  0084                     wtemp3	set	132
  3768  0086                     wtemp4	set	134
  3769  0088                     wtemp5	set	136
  3770  007F                     wtemp6	set	127
  3771  007E                     ttemp	set	126
  3772  007E                     ttemp0	set	126
  3773  0081                     ttemp1	set	129
  3774  0084                     ttemp2	set	132
  3775  0087                     ttemp3	set	135
  3776  007F                     ttemp4	set	127
  3777  007E                     ltemp	set	126
  3778  007E                     ltemp0	set	126
  3779  0082                     ltemp1	set	130
  3780  0086                     ltemp2	set	134
  3781  0080                     ltemp3	set	128


Data Sizes:
    Strings     0
    Constant    0
    Data        9
    BSS         0
    Persistent  0
    Stack       0

Auto Spaces:
    Space          Size  Autos    Used
    COMMON           14     11      11
    BANK0            80      8      17
    BANK1            80      0       0
    BANK2            80      0       0
    BANK3            80      0       0
    BANK4            80      0       0
    BANK5            80      0       0
    BANK6            80      0       0
    BANK7            80      0       0
    BANK8            80      0       0
    BANK9            80      0       0
    BANK10           80      0       0
    BANK11           80      0       0
    BANK12           32      0       0

Pointer List with Targets:

    __builtin_memcpy$1	PTR const void  size(1) Largest target is 9
		 -> video_buffer.buffer2(BANK0[4]), video_buffer(BANK0[9]), 

    __builtin_memcpy$0	PTR void  size(1) Largest target is 9
		 -> video_buffer(BANK0[9]), 

    Display_PrintInteger@p	PTR unsigned char  size(1) Largest target is 9
		 -> video_buffer.buffer2(BANK0[4]), video_buffer(BANK0[9]), 

    sp____builtin_memcpy	PTR void  size(2) Largest target is 4096
		 -> RAM(DATA[4096]), 


Critical Paths under _main in COMMON

    _Display_PrintInteger->___lwdiv

Critical Paths under _isr in COMMON

    _isr->___Timer5_isr
    ___Timer5_isr->_SPI_SendByte

Critical Paths under _main in BANK0

    _main->_Display_PrintInteger

Critical Paths under _isr in BANK0

    None.

Critical Paths under _main in BANK1

    None.

Critical Paths under _isr in BANK1

    None.

Critical Paths under _main in BANK2

    None.

Critical Paths under _isr in BANK2

    None.

Critical Paths under _main in BANK3

    None.

Critical Paths under _isr in BANK3

    None.

Critical Paths under _main in BANK4

    None.

Critical Paths under _isr in BANK4

    None.

Critical Paths under _main in BANK5

    None.

Critical Paths under _isr in BANK5

    None.

Critical Paths under _main in BANK6

    None.

Critical Paths under _isr in BANK6

    None.

Critical Paths under _main in BANK7

    None.

Critical Paths under _isr in BANK7

    None.

Critical Paths under _main in BANK8

    None.

Critical Paths under _isr in BANK8

    None.

Critical Paths under _main in BANK9

    None.

Critical Paths under _isr in BANK9

    None.

Critical Paths under _main in BANK10

    None.

Critical Paths under _isr in BANK10

    None.

Critical Paths under _main in BANK11

    None.

Critical Paths under _isr in BANK11

    None.

Critical Paths under _main in BANK12

    None.

Critical Paths under _isr in BANK12

    None.

Call Graph Tables:

 ---------------------------------------------------------------------------------
 (Depth) Function   	        Calls       Base Space   Used Autos Params    Refs
 ---------------------------------------------------------------------------------
 (0) _main                                                 4     4      0     852
                                              4 BANK0      4     4      0
                _ConfigureOscillator
               _Display_PrintInteger
                            _InitApp
 ---------------------------------------------------------------------------------
 (1) _InitApp                                              0     0      0       0
                        ___GPIO_Init
                         ___PPS_Init
                         ___SPI_Init
                      ___Timer5_Init
 ---------------------------------------------------------------------------------
 (2) ___Timer5_Init                                        0     0      0       0
 ---------------------------------------------------------------------------------
 (2) ___SPI_Init                                           0     0      0       0
 ---------------------------------------------------------------------------------
 (2) ___PPS_Init                                           0     0      0       0
                         ___PPS_Lock
                       ___PPS_Unlock
 ---------------------------------------------------------------------------------
 (3) ___PPS_Unlock                                         0     0      0       0
 ---------------------------------------------------------------------------------
 (3) ___PPS_Lock                                           0     0      0       0
 ---------------------------------------------------------------------------------
 (2) ___GPIO_Init                                          0     0      0       0
 ---------------------------------------------------------------------------------
 (1) _Display_PrintInteger                                 4     2      2     828
                                              0 BANK0      4     2      2
                      _Display_Clear
             ___Display_digit_to_mem
                            ___lwdiv
                            ___lwmod
 ---------------------------------------------------------------------------------
 (2) ___lwmod                                              6     2      4     371
                                              3 COMMON     6     2      4
 ---------------------------------------------------------------------------------
 (2) ___lwdiv                                              8     4      4     268
                                              3 COMMON     8     4      4
 ---------------------------------------------------------------------------------
 (2) ___Display_digit_to_mem                               1     1      0      22
                                              3 COMMON     1     1      0
 ---------------------------------------------------------------------------------
 (2) _Display_Clear                                        1     1      0       0
                                              3 COMMON     1     1      0
 ---------------------------------------------------------------------------------
 (1) _ConfigureOscillator                                  0     0      0       0
 ---------------------------------------------------------------------------------
 Estimated maximum stack depth 3
 ---------------------------------------------------------------------------------
 (Depth) Function   	        Calls       Base Space   Used Autos Params    Refs
 ---------------------------------------------------------------------------------
 (4) _isr                                                  1     1      0      22
                                              2 COMMON     1     1      0
                       ___Timer5_isr
                    ___unhandled_isr
 ---------------------------------------------------------------------------------
 (5) ___unhandled_isr                                      0     0      0       0
 ---------------------------------------------------------------------------------
 (5) ___Timer5_isr                                         1     1      0      22
                                              1 COMMON     1     1      0
                       _SPI_SendByte
 ---------------------------------------------------------------------------------
 (6) _SPI_SendByte                                         1     1      0      22
                                              0 COMMON     1     1      0
 ---------------------------------------------------------------------------------
 Estimated maximum stack depth 6
 ---------------------------------------------------------------------------------

 Call Graph Graphs:

 _main (ROOT)
   _ConfigureOscillator
   _Display_PrintInteger
     _Display_Clear
     ___Display_digit_to_mem
     ___lwdiv
     ___lwmod
   _InitApp
     ___GPIO_Init
     ___PPS_Init
       ___PPS_Lock
       ___PPS_Unlock
     ___SPI_Init
     ___Timer5_Init

 _isr (ROOT)
   ___Timer5_isr
     _SPI_SendByte
   ___unhandled_isr

 Address spaces:
Name               Size   Autos  Total    Cost      Usage
BIGRAM             3E0      0       0       0        0.0%
NULL                 0      0       0       0        0.0%
CODE                 0      0       0       0        0.0%
BITCOMMON            E      0       0       1        0.0%
BITSFR0              0      0       0       1        0.0%
SFR0                 0      0       0       1        0.0%
COMMON               E      B       B       2       78.6%
BITSFR1              0      0       0       2        0.0%
SFR1                 0      0       0       2        0.0%
BITSFR2              0      0       0       3        0.0%
SFR2                 0      0       0       3        0.0%
STACK                0      0       0       3        0.0%
BITBANK0            50      0       0       4        0.0%
BITSFR3              0      0       0       4        0.0%
SFR3                 0      0       0       4        0.0%
BANK0               50      8      11       5       21.3%
BITSFR4              0      0       0       5        0.0%
SFR4                 0      0       0       5        0.0%
BITBANK1            50      0       0       6        0.0%
BITSFR5              0      0       0       6        0.0%
SFR5                 0      0       0       6        0.0%
BANK1               50      0       0       7        0.0%
BITSFR6              0      0       0       7        0.0%
SFR6                 0      0       0       7        0.0%
BITBANK2            50      0       0       8        0.0%
BITSFR7              0      0       0       8        0.0%
SFR7                 0      0       0       8        0.0%
BANK2               50      0       0       9        0.0%
BITSFR8              0      0       0       9        0.0%
SFR8                 0      0       0       9        0.0%
BITBANK3            50      0       0      10        0.0%
BITSFR9              0      0       0      10        0.0%
SFR9                 0      0       0      10        0.0%
BANK3               50      0       0      11        0.0%
BITSFR10             0      0       0      11        0.0%
SFR10                0      0       0      11        0.0%
BITBANK4            50      0       0      12        0.0%
BITSFR11             0      0       0      12        0.0%
SFR11                0      0       0      12        0.0%
BANK4               50      0       0      13        0.0%
BITSFR12             0      0       0      13        0.0%
SFR12                0      0       0      13        0.0%
BITBANK5            50      0       0      14        0.0%
BITSFR13             0      0       0      14        0.0%
SFR13                0      0       0      14        0.0%
BANK5               50      0       0      15        0.0%
BITSFR14             0      0       0      15        0.0%
SFR14                0      0       0      15        0.0%
BITBANK6            50      0       0      16        0.0%
BITSFR15             0      0       0      16        0.0%
SFR15                0      0       0      16        0.0%
BANK6               50      0       0      17        0.0%
BITSFR16             0      0       0      17        0.0%
SFR16                0      0       0      17        0.0%
BITBANK7            50      0       0      18        0.0%
BITSFR17             0      0       0      18        0.0%
SFR17                0      0       0      18        0.0%
BANK7               50      0       0      19        0.0%
BITSFR18             0      0       0      19        0.0%
SFR18                0      0       0      19        0.0%
BITSFR19             0      0       0      20        0.0%
SFR19                0      0       0      20        0.0%
ABS                  0      0      1C      20        0.0%
BITBANK8            50      0       0      21        0.0%
BITSFR20             0      0       0      21        0.0%
SFR20                0      0       0      21        0.0%
BANK8               50      0       0      22        0.0%
BITSFR21             0      0       0      22        0.0%
SFR21                0      0       0      22        0.0%
BITBANK9            50      0       0      23        0.0%
BITSFR22             0      0       0      23        0.0%
SFR22                0      0       0      23        0.0%
BANK9               50      0       0      24        0.0%
BITSFR23             0      0       0      24        0.0%
SFR23                0      0       0      24        0.0%
BITBANK10           50      0       0      25        0.0%
BITSFR24             0      0       0      25        0.0%
SFR24                0      0       0      25        0.0%
BANK10              50      0       0      26        0.0%
BITSFR25             0      0       0      26        0.0%
SFR25                0      0       0      26        0.0%
BITBANK11           50      0       0      27        0.0%
BITSFR26             0      0       0      27        0.0%
SFR26                0      0       0      27        0.0%
BANK11              50      0       0      28        0.0%
BITSFR27             0      0       0      28        0.0%
SFR27                0      0       0      28        0.0%
BITBANK12           20      0       0      29        0.0%
BITSFR28             0      0       0      29        0.0%
SFR28                0      0       0      29        0.0%
BANK12              20      0       0      30        0.0%
BITSFR29             0      0       0      30        0.0%
SFR29                0      0       0      30        0.0%
BITSFR30             0      0       0      31        0.0%
SFR30                0      0       0      31        0.0%
DATA                 0      0      1C      31        0.0%
BITSFR31             0      0       0      32        0.0%
SFR31                0      0       0      32        0.0%


Microchip Technology PIC Macro Assembler V1.34 build -361300703 
Symbol Table                                                                                   Fri Jul 01 22:57:41 2016

                              pc 0002                     _SPI_SendByte 0197                      __CFG_CP$OFF 0000  
                             l57 0194                              S969 0143                      __CFG_LVP$ON 0000  
                            l811 0113                              l803 010F                              l821 0117  
                            l823 0121                              l815 0115                              l807 0111  
                            l851 00C7                              l843 00A9                              l923 003C  
                            l845 00B5                              l791 0109                              l783 0105  
                            l855 00D0                              l943 012C                              l873 00F3  
                            l795 010B                              l787 0107                              l779 0103  
                            l867 00DB                              l869 00E7                              l877 00FC  
                            l799 010D                              u225 00AC                              u315 00ED  
                            u245 00B6                              u325 00F4                              u255 00C0  
                            u265 00C8                              u295 00DE                              u397 013D  
                            _isr 0004                     __CFG_BORV$LO 0000                              wreg 0009  
                   __CFG_IESO$ON 0000                     __CFG_ZCD$OFF 0000                             ?_isr 0070  
                           i1l25 0010                             i1l28 01C5                     __CFG_WRT$OFF 0000  
                  __CFG_FCMEN$ON 0000                             _main 0123                             fsr0h 0005  
                           fsr1h 0007                             fsr0l 0004                             indf1 0001  
                           fsr1l 0006                             btemp 007E                    __CFG_BOREN$ON 0000  
                           ltemp 007E                             start 0014                             ttemp 007E  
                           wtemp 007E                    ??___GPIO_Init 0073                    __CFG_MCLRE$ON 0000  
                __end_of_InitApp 0169                            ??_isr 0072                    __CFG_PLLEN$ON 0000  
                          ?_main 0070                    __CFG_WDTE$OFF 0000                            _T5CON 049C  
                __end_of___lwdiv 00D5                            i1l123 019C                  __end_of___lwmod 0101  
                          i1l935 000E                            _TMR5H 049B                            u34_24 0072  
                          u34_25 0071                            _TMR5L 049A              _ConfigureOscillator 018F  
                  __CFG_PWRTE$ON 0000                            main@i 002F                            ltemp0 007E  
                          ltemp1 0082                            ltemp2 0086                            ltemp3 0080  
                          ttemp0 007E                            ttemp1 0081                            ttemp2 0084  
                          ttemp3 0087                            ttemp4 007F                            status 0003  
                          wtemp0 007E                            wtemp1 0080                            wtemp2 0082  
                          wtemp3 0084                            wtemp4 0086                            wtemp5 0088  
                          wtemp6 007F             ?_ConfigureOscillator 0070                  __initialization 0016  
                   __end_of_main 0143    __size_of_Display_PrintInteger 0046                   __CFG_LPBOR$OFF 0000  
            __end_of___GPIO_Init 01BB                           ??_main 002D                       ___PPS_Init 017B  
                     ___PPS_Lock 01AD                       ___SPI_Init 019F                           _RC0PPS 0EA0  
       ??___Display_digit_to_mem 0073                           _RC2PPS 0EA2                  ___unhandled_isr 01C5  
                  ?___PPS_Unlock 0070                           u35_2m0 0093                           _SSPBUF 0211  
                      ??_InitApp 0073            ??_ConfigureOscillator 0073                   __CFG_STVREN$ON 0000  
                      ??___lwdiv 0077                        ??___lwmod 0077            __end_of___Timer5_Init 01C5  
                 ??___PPS_Unlock 0073          __end_of__initialization 0021                      ___GPIO_Init 01B4  
                 __pcstackCOMMON 0070                     __pidataBANK0 0186                      ?___PPS_Init 0070  
                    ?___PPS_Lock 0070                      ?___SPI_Init 0070          __end_of___unhandled_isr 01C7  
__size_of___Display_digit_to_mem 0022                       __pmaintext 0123            __end_of_Display_Clear 017B  
                __CFG_PPS1WAY$ON 0000                       __pintentry 0004          Display_PrintInteger@num 0029  
                __CFG_WDTCCS$SWC 0000                          _SSP1ADD 0212                          _PPSLOCK 0E0F  
                  ?___Timer5_isr 0070                          _InitApp 0157                 SPI_SendByte@byte 0070  
            __size_of___PPS_Init 000B              __size_of___PPS_Lock 0007              __size_of___SPI_Init 0007  
                        ___lwdiv 00A1                          ___lwmod 00D5           ___Display_digit_to_mem 0101  
           __end_of___PPS_Unlock 01AD                          __ptext1 0157                          __ptext2 01C1  
                        __ptext3 019F                          __ptext4 017B                          __ptext5 01A6  
                        __ptext6 01AD                          __ptext7 01B4                          __ptext8 0024  
                        __ptext9 00D5                     __size_of_isr 0010                 ?___unhandled_isr 0070  
   __end_of_Display_PrintInteger 006A             end_of_initialization 0021                   ??___Timer5_isr 0071  
                        init_ram 01BB                          initloop 01BC                 __CFG_FOSC$INTOSC 0000  
                      _TRISCbits 008E      __end_of_ConfigureOscillator 0197                     ?___GPIO_Init 0070  
                  ?_SPI_SendByte 0070                     ??___PPS_Init 0073                     ??___PPS_Lock 0073  
                   ??___SPI_Init 0073              start_initialization 0016                      __end_of_isr 0014  
          Display_PrintInteger@p 002C           __size_of___Timer5_Init 0004            __size_of___PPS_Unlock 0007  
                 ??_SPI_SendByte 0070               __end_of___PPS_Init 0186               __end_of___PPS_Lock 01B4  
             __end_of___SPI_Init 01A6                      __pdataBANK0 0020             _Display_PrintInteger 0024  
           __end_of___Timer5_isr 00A1                        ___latbits 0002                    __pcstackBANK0 0029  
                   ___PPS_Unlock 01A6                         ?_InitApp 0070                 ___lwdiv@dividend 0075  
        ?___Display_digit_to_mem 0070            ?_Display_PrintInteger 0029                         ?___lwdiv 0073  
                       ?___lwmod 0073                        __pswtext1 0143                    ___Timer5_Init 01C1  
               ___lwdiv@quotient 0078           __size_of_Display_Clear 0012                         _LATCbits 010E  
                       _PIE5bits 0094   __end_of___Display_digit_to_mem 0123                         _PIR5bits 0014  
           __CFG_WDTCPS$WDTCPS1F 0000                         _SSP1CON1 0215             __size_of___GPIO_Init 0007  
                       _SSP1STAT 0214                   ?___Timer5_Init 0070             __end_of_SPI_SendByte 019F  
       __size_of___unhandled_isr 0002                 __size_of_InitApp 0012            __size_of___Timer5_isr 0037  
         ??_Display_PrintInteger 002B                    _Display_Clear 0169                 __size_of___lwdiv 0034  
               __size_of___lwmod 002C                  ___lwdiv@divisor 0073                  ___lwdiv@counter 007A  
                       __ptext10 00A1                         __ptext11 0101                         __ptext12 0169  
                       __ptext13 018F                         __ptext15 01C5                         __ptext16 006A  
                       __ptext17 0197                     _SSP1CON1bits 0215                     ___Timer5_isr 006A  
                  __size_of_main 0020             __CFG_WDTCWS$WDTCWSSW 0000     __size_of_ConfigureOscillator 0008  
                 ?_Display_Clear 0070     ___Display_digit_to_mem@digit 0073                     _SSP1STATbits 0214  
                ??___Timer5_Init 0073                      _OSCSTATbits 009A                       _INTCONbits 000B  
                       intlevel1 0000                 ___lwmod@dividend 0075                __CFG_CLKOUTEN$OFF 0000  
                   _video_buffer 0020                      _PPSLOCKbits 0E0F                       _OSCCONbits 0099  
              ??___unhandled_isr 0070            __size_of_SPI_SendByte 0008                  ___lwmod@divisor 0073  
                ___lwmod@counter 0078                  ??_Display_Clear 0073  
